Component: ARM Compiler 5.06 update 3 (build 300) Tool: armlink [4d35c9]

==============================================================================

Section Cross References

    tim.o(i.HAL_TIM_Base_MspDeInit) refers to stm32f7xx_hal_cortex.o(i.HAL_NVIC_DisableIRQ) for HAL_NVIC_DisableIRQ
    tim.o(i.HAL_TIM_Base_MspInit) refers to stm32f7xx_hal_cortex.o(i.HAL_NVIC_SetPriority) for HAL_NVIC_SetPriority
    tim.o(i.HAL_TIM_Base_MspInit) refers to stm32f7xx_hal_cortex.o(i.HAL_NVIC_EnableIRQ) for HAL_NVIC_EnableIRQ
    tim.o(i.MX_TIM1_Init) refers to stm32f7xx_hal_tim.o(i.HAL_TIM_Base_Init) for HAL_TIM_Base_Init
    tim.o(i.MX_TIM1_Init) refers to main.o(i._Error_Handler) for _Error_Handler
    tim.o(i.MX_TIM1_Init) refers to stm32f7xx_hal_tim.o(i.HAL_TIM_ConfigClockSource) for HAL_TIM_ConfigClockSource
    tim.o(i.MX_TIM1_Init) refers to stm32f7xx_hal_tim_ex.o(i.HAL_TIMEx_MasterConfigSynchronization) for HAL_TIMEx_MasterConfigSynchronization
    tim.o(i.MX_TIM1_Init) refers to tim.o(.bss) for .bss
    tim.o(i.MX_TIM6_Init) refers to stm32f7xx_hal_tim.o(i.HAL_TIM_Base_Init) for HAL_TIM_Base_Init
    tim.o(i.MX_TIM6_Init) refers to main.o(i._Error_Handler) for _Error_Handler
    tim.o(i.MX_TIM6_Init) refers to stm32f7xx_hal_tim_ex.o(i.HAL_TIMEx_MasterConfigSynchronization) for HAL_TIMEx_MasterConfigSynchronization
    tim.o(i.MX_TIM6_Init) refers to tim.o(.bss) for .bss
    rtc.o(i.MX_RTC_Init) refers to stm32f7xx_hal_rtc.o(i.HAL_RTC_Init) for HAL_RTC_Init
    rtc.o(i.MX_RTC_Init) refers to main.o(i._Error_Handler) for _Error_Handler
    rtc.o(i.MX_RTC_Init) refers to rtc.o(.bss) for .bss
    quadspi.o(i.HAL_QSPI_MspDeInit) refers to stm32f7xx_hal_gpio.o(i.HAL_GPIO_DeInit) for HAL_GPIO_DeInit
    quadspi.o(i.HAL_QSPI_MspInit) refers to stm32f7xx_hal_gpio.o(i.HAL_GPIO_Init) for HAL_GPIO_Init
    quadspi.o(i.MX_QUADSPI_Init) refers to stm32f7xx_hal_qspi.o(i.HAL_QSPI_Init) for HAL_QSPI_Init
    quadspi.o(i.MX_QUADSPI_Init) refers to main.o(i._Error_Handler) for _Error_Handler
    quadspi.o(i.MX_QUADSPI_Init) refers to quadspi.o(.bss) for .bss
    dma.o(i.MX_DMA_Init) refers to stm32f7xx_hal_cortex.o(i.HAL_NVIC_SetPriority) for HAL_NVIC_SetPriority
    dma.o(i.MX_DMA_Init) refers to stm32f7xx_hal_cortex.o(i.HAL_NVIC_EnableIRQ) for HAL_NVIC_EnableIRQ
    stm32f7xx_hal_msp.o(i.HAL_MspInit) refers to stm32f7xx_hal_cortex.o(i.HAL_NVIC_SetPriorityGrouping) for HAL_NVIC_SetPriorityGrouping
    stm32f7xx_hal_msp.o(i.HAL_MspInit) refers to stm32f7xx_hal_cortex.o(i.HAL_NVIC_SetPriority) for HAL_NVIC_SetPriority
    stm32f7xx_it.o(i.DMA2_Stream0_IRQHandler) refers to stm32f7xx_hal_dma.o(i.HAL_DMA_IRQHandler) for HAL_DMA_IRQHandler
    stm32f7xx_it.o(i.DMA2_Stream0_IRQHandler) refers to adc.o(.bss) for hdma_adc1
    stm32f7xx_it.o(i.DMA2_Stream1_IRQHandler) refers to stm32f7xx_hal_dma.o(i.HAL_DMA_IRQHandler) for HAL_DMA_IRQHandler
    stm32f7xx_it.o(i.DMA2_Stream1_IRQHandler) refers to adc.o(.bss) for hdma_adc3
    stm32f7xx_it.o(i.DMA2_Stream2_IRQHandler) refers to stm32f7xx_hal_dma.o(i.HAL_DMA_IRQHandler) for HAL_DMA_IRQHandler
    stm32f7xx_it.o(i.DMA2_Stream2_IRQHandler) refers to adc.o(.bss) for hdma_adc2
    stm32f7xx_it.o(i.EXTI15_10_IRQHandler) refers to stm32f7xx_hal_gpio.o(i.HAL_GPIO_EXTI_IRQHandler) for HAL_GPIO_EXTI_IRQHandler
    stm32f7xx_it.o(i.EXTI15_10_IRQHandler) refers to main.o(.data) for incoming_data_flag
    stm32f7xx_it.o(i.SPI2_IRQHandler) refers to stm32f7xx_hal_spi.o(i.HAL_SPI_IRQHandler) for HAL_SPI_IRQHandler
    stm32f7xx_it.o(i.SPI2_IRQHandler) refers to spi.o(.bss) for hspi2
    stm32f7xx_it.o(i.SysTick_Handler) refers to stm32f7xx_hal.o(i.HAL_IncTick) for HAL_IncTick
    stm32f7xx_it.o(i.SysTick_Handler) refers to stm32f7xx_hal_cortex.o(i.HAL_SYSTICK_IRQHandler) for HAL_SYSTICK_IRQHandler
    stm32f7xx_it.o(i.SysTick_Handler) refers to uart_masterslave.o(i.uart_sysTickCallApp) for uart_sysTickCallApp
    stm32f7xx_it.o(i.SysTick_Handler) refers to spi_masterslave.o(i.spi_sysTickCallApp) for spi_sysTickCallApp
    stm32f7xx_it.o(i.TIM1_UP_TIM10_IRQHandler) refers to stm32f7xx_hal_tim.o(i.HAL_TIM_IRQHandler) for HAL_TIM_IRQHandler
    stm32f7xx_it.o(i.TIM1_UP_TIM10_IRQHandler) refers to tim.o(.bss) for htim1
    stm32f7xx_it.o(i.USART2_IRQHandler) refers to stm32f7xx_hal_uart.o(i.HAL_UART_IRQHandler) for HAL_UART_IRQHandler
    stm32f7xx_it.o(i.USART2_IRQHandler) refers to usart.o(.bss) for huart2
    adc.o(i.HAL_ADC_MspDeInit) refers to stm32f7xx_hal_gpio.o(i.HAL_GPIO_DeInit) for HAL_GPIO_DeInit
    adc.o(i.HAL_ADC_MspDeInit) refers to stm32f7xx_hal_dma.o(i.HAL_DMA_DeInit) for HAL_DMA_DeInit
    adc.o(i.HAL_ADC_MspInit) refers to stm32f7xx_hal_gpio.o(i.HAL_GPIO_Init) for HAL_GPIO_Init
    adc.o(i.HAL_ADC_MspInit) refers to stm32f7xx_hal_dma.o(i.HAL_DMA_Init) for HAL_DMA_Init
    adc.o(i.HAL_ADC_MspInit) refers to main.o(i._Error_Handler) for _Error_Handler
    adc.o(i.HAL_ADC_MspInit) refers to adc.o(.bss) for .bss
    adc.o(i.MX_ADC1_Init) refers to stm32f7xx_hal_adc.o(i.HAL_ADC_Init) for HAL_ADC_Init
    adc.o(i.MX_ADC1_Init) refers to main.o(i._Error_Handler) for _Error_Handler
    adc.o(i.MX_ADC1_Init) refers to stm32f7xx_hal_adc_ex.o(i.HAL_ADCEx_MultiModeConfigChannel) for HAL_ADCEx_MultiModeConfigChannel
    adc.o(i.MX_ADC1_Init) refers to stm32f7xx_hal_adc.o(i.HAL_ADC_ConfigChannel) for HAL_ADC_ConfigChannel
    adc.o(i.MX_ADC1_Init) refers to adc.o(.bss) for .bss
    adc.o(i.MX_ADC2_Init) refers to stm32f7xx_hal_adc.o(i.HAL_ADC_Init) for HAL_ADC_Init
    adc.o(i.MX_ADC2_Init) refers to main.o(i._Error_Handler) for _Error_Handler
    adc.o(i.MX_ADC2_Init) refers to stm32f7xx_hal_adc.o(i.HAL_ADC_ConfigChannel) for HAL_ADC_ConfigChannel
    adc.o(i.MX_ADC2_Init) refers to adc.o(.bss) for .bss
    adc.o(i.MX_ADC3_Init) refers to stm32f7xx_hal_adc.o(i.HAL_ADC_Init) for HAL_ADC_Init
    adc.o(i.MX_ADC3_Init) refers to main.o(i._Error_Handler) for _Error_Handler
    adc.o(i.MX_ADC3_Init) refers to stm32f7xx_hal_adc.o(i.HAL_ADC_ConfigChannel) for HAL_ADC_ConfigChannel
    adc.o(i.MX_ADC3_Init) refers to adc.o(.bss) for .bss
    main.o(i.SystemClock_Config) refers to stm32f7xx_hal_rcc.o(i.HAL_RCC_OscConfig) for HAL_RCC_OscConfig
    main.o(i.SystemClock_Config) refers to stm32f7xx_hal_pwr_ex.o(i.HAL_PWREx_EnableOverDrive) for HAL_PWREx_EnableOverDrive
    main.o(i.SystemClock_Config) refers to stm32f7xx_hal_rcc.o(i.HAL_RCC_ClockConfig) for HAL_RCC_ClockConfig
    main.o(i.SystemClock_Config) refers to stm32f7xx_hal_rcc_ex.o(i.HAL_RCCEx_PeriphCLKConfig) for HAL_RCCEx_PeriphCLKConfig
    main.o(i.SystemClock_Config) refers to stm32f7xx_hal_rcc.o(i.HAL_RCC_GetHCLKFreq) for HAL_RCC_GetHCLKFreq
    main.o(i.SystemClock_Config) refers to stm32f7xx_hal_cortex.o(i.HAL_SYSTICK_Config) for HAL_SYSTICK_Config
    main.o(i.SystemClock_Config) refers to stm32f7xx_hal_cortex.o(i.HAL_SYSTICK_CLKSourceConfig) for HAL_SYSTICK_CLKSourceConfig
    main.o(i.SystemClock_Config) refers to stm32f7xx_hal_cortex.o(i.HAL_NVIC_SetPriority) for HAL_NVIC_SetPriority
    main.o(i.main) refers to stm32f7xx_hal.o(i.HAL_Init) for HAL_Init
    main.o(i.main) refers to main.o(i.SystemClock_Config) for SystemClock_Config
    main.o(i.main) refers to gpio.o(i.MX_GPIO_Init) for MX_GPIO_Init
    main.o(i.main) refers to dma.o(i.MX_DMA_Init) for MX_DMA_Init
    main.o(i.main) refers to adc.o(i.MX_ADC1_Init) for MX_ADC1_Init
    main.o(i.main) refers to adc.o(i.MX_ADC2_Init) for MX_ADC2_Init
    main.o(i.main) refers to adc.o(i.MX_ADC3_Init) for MX_ADC3_Init
    main.o(i.main) refers to tim.o(i.MX_TIM1_Init) for MX_TIM1_Init
    main.o(i.main) refers to quadspi.o(i.MX_QUADSPI_Init) for MX_QUADSPI_Init
    main.o(i.main) refers to rtc.o(i.MX_RTC_Init) for MX_RTC_Init
    main.o(i.main) refers to tim.o(i.MX_TIM6_Init) for MX_TIM6_Init
    main.o(i.main) refers to usart.o(i.MX_USART2_UART_Init) for MX_USART2_UART_Init
    main.o(i.main) refers to spi.o(i.MX_SPI2_Init) for MX_SPI2_Init
    main.o(i.main) refers to stm32f7xx_hal_cortex.o(i.HAL_NVIC_SetPriority) for HAL_NVIC_SetPriority
    main.o(i.main) refers to stm32f7xx_hal_cortex.o(i.HAL_NVIC_EnableIRQ) for HAL_NVIC_EnableIRQ
    main.o(i.main) refers to initfunctions.o(i.initFunctions) for initFunctions
    main.o(i.main) refers to stm32f7xx_hal_tim.o(i.HAL_TIM_Base_Start_IT) for HAL_TIM_Base_Start_IT
    main.o(i.main) refers to stm32f7xx_hal_adc.o(i.HAL_ADC_Start) for HAL_ADC_Start
    main.o(i.main) refers to stm32f7xx_hal_adc_ex.o(i.HAL_ADCEx_MultiModeStart_DMA) for HAL_ADCEx_MultiModeStart_DMA
    main.o(i.main) refers to uart_masterslave.o(i.uart_initComApp) for uart_initComApp
    main.o(i.main) refers to spi_masterslave.o(i.spi_initComApp) for spi_initComApp
    main.o(i.main) refers to uart_masterslave.o(i.uart_runComApp) for uart_runComApp
    main.o(i.main) refers to spi_masterslave.o(i.spi_runComApp) for spi_runComApp
    main.o(i.main) refers to configparams.o(i.pullDataFromMaster) for pullDataFromMaster
    main.o(i.main) refers to commparams.o(i.pushDataToMaster) for pushDataToMaster
    main.o(i.main) refers to tim.o(.bss) for htim1
    main.o(i.main) refers to adc.o(.bss) for hadc3
    main.o(i.main) refers to main.o(.bss) for .bss
    main.o(i.main) refers to conversion.o(.data) for conversion_completed
    main.o(i.main) refers to conversion.o(.data) for cycle_count_2
    main.o(i.main) refers to main.o(.data) for .data
    gpio.o(i.MX_GPIO_Init) refers to stm32f7xx_hal_gpio.o(i.HAL_GPIO_WritePin) for HAL_GPIO_WritePin
    gpio.o(i.MX_GPIO_Init) refers to stm32f7xx_hal_gpio.o(i.HAL_GPIO_Init) for HAL_GPIO_Init
    gpio.o(i.MX_GPIO_Init) refers to stm32f7xx_hal_cortex.o(i.HAL_NVIC_SetPriority) for HAL_NVIC_SetPriority
    gpio.o(i.MX_GPIO_Init) refers to stm32f7xx_hal_cortex.o(i.HAL_NVIC_EnableIRQ) for HAL_NVIC_EnableIRQ
    usart.o(i.HAL_UART_MspDeInit) refers to stm32f7xx_hal_gpio.o(i.HAL_GPIO_DeInit) for HAL_GPIO_DeInit
    usart.o(i.HAL_UART_MspDeInit) refers to stm32f7xx_hal_cortex.o(i.HAL_NVIC_DisableIRQ) for HAL_NVIC_DisableIRQ
    usart.o(i.HAL_UART_MspInit) refers to stm32f7xx_hal_gpio.o(i.HAL_GPIO_Init) for HAL_GPIO_Init
    usart.o(i.HAL_UART_MspInit) refers to stm32f7xx_hal_cortex.o(i.HAL_NVIC_SetPriority) for HAL_NVIC_SetPriority
    usart.o(i.HAL_UART_MspInit) refers to stm32f7xx_hal_cortex.o(i.HAL_NVIC_EnableIRQ) for HAL_NVIC_EnableIRQ
    usart.o(i.MX_USART2_UART_Init) refers to stm32f7xx_hal_uart.o(i.HAL_UART_Init) for HAL_UART_Init
    usart.o(i.MX_USART2_UART_Init) refers to main.o(i._Error_Handler) for _Error_Handler
    usart.o(i.MX_USART2_UART_Init) refers to usart.o(.bss) for .bss
    spi.o(i.HAL_SPI_MspDeInit) refers to stm32f7xx_hal_gpio.o(i.HAL_GPIO_DeInit) for HAL_GPIO_DeInit
    spi.o(i.HAL_SPI_MspDeInit) refers to stm32f7xx_hal_cortex.o(i.HAL_NVIC_DisableIRQ) for HAL_NVIC_DisableIRQ
    spi.o(i.HAL_SPI_MspInit) refers to stm32f7xx_hal_gpio.o(i.HAL_GPIO_Init) for HAL_GPIO_Init
    spi.o(i.HAL_SPI_MspInit) refers to stm32f7xx_hal_cortex.o(i.HAL_NVIC_SetPriority) for HAL_NVIC_SetPriority
    spi.o(i.HAL_SPI_MspInit) refers to stm32f7xx_hal_cortex.o(i.HAL_NVIC_EnableIRQ) for HAL_NVIC_EnableIRQ
    spi.o(i.MX_SPI2_Init) refers to stm32f7xx_hal_spi.o(i.HAL_SPI_Init) for HAL_SPI_Init
    spi.o(i.MX_SPI2_Init) refers to main.o(i._Error_Handler) for _Error_Handler
    spi.o(i.MX_SPI2_Init) refers to spi.o(.bss) for .bss
    measurement_functions.o(i.cs_computations) refers to sqrt.o(i.__hardfp_sqrt) for __hardfp_sqrt
    measurement_functions.o(i.cs_computations) refers to atan2.o(i.__hardfp_atan2) for __hardfp_atan2
    measurement_functions.o(i.signal_spectra) refers to sqrtf.o(i.__hardfp_sqrtf) for __hardfp_sqrtf
    measurement_functions.o(i.signal_thd) refers to sqrtf.o(i.__hardfp_sqrtf) for __hardfp_sqrtf
    measurement_functions.o(i.sym_mag) refers to sqrtf.o(i.__hardfp_sqrtf) for __hardfp_sqrtf
    measurement_functions.o(i.true_rms) refers to sqrt.o(i.__hardfp_sqrt) for __hardfp_sqrt
    protection_functions.o(i.fc46i) refers to powf.o(i.__hardfp_powf) for __hardfp_powf
    protection_functions.o(i.fc51) refers to powf.o(i.__hardfp_powf) for __hardfp_powf
    protection_functions.o(i.fcPVPi) refers to protection_functions.o(i.pvp_curve) for pvp_curve
    protection_functions.o(i.fcUNBi) refers to powf.o(i.__hardfp_powf) for __hardfp_powf
    startup_stm32f767xx.o(RESET) refers to startup_stm32f767xx.o(STACK) for __initial_sp
    startup_stm32f767xx.o(RESET) refers to startup_stm32f767xx.o(.text) for Reset_Handler
    startup_stm32f767xx.o(RESET) refers to stm32f7xx_it.o(i.NMI_Handler) for NMI_Handler
    startup_stm32f767xx.o(RESET) refers to stm32f7xx_it.o(i.HardFault_Handler) for HardFault_Handler
    startup_stm32f767xx.o(RESET) refers to stm32f7xx_it.o(i.MemManage_Handler) for MemManage_Handler
    startup_stm32f767xx.o(RESET) refers to stm32f7xx_it.o(i.BusFault_Handler) for BusFault_Handler
    startup_stm32f767xx.o(RESET) refers to stm32f7xx_it.o(i.UsageFault_Handler) for UsageFault_Handler
    startup_stm32f767xx.o(RESET) refers to stm32f7xx_it.o(i.SVC_Handler) for SVC_Handler
    startup_stm32f767xx.o(RESET) refers to stm32f7xx_it.o(i.DebugMon_Handler) for DebugMon_Handler
    startup_stm32f767xx.o(RESET) refers to stm32f7xx_it.o(i.PendSV_Handler) for PendSV_Handler
    startup_stm32f767xx.o(RESET) refers to stm32f7xx_it.o(i.SysTick_Handler) for SysTick_Handler
    startup_stm32f767xx.o(RESET) refers to stm32f7xx_it.o(i.TIM1_UP_TIM10_IRQHandler) for TIM1_UP_TIM10_IRQHandler
    startup_stm32f767xx.o(RESET) refers to stm32f7xx_it.o(i.SPI2_IRQHandler) for SPI2_IRQHandler
    startup_stm32f767xx.o(RESET) refers to stm32f7xx_it.o(i.USART2_IRQHandler) for USART2_IRQHandler
    startup_stm32f767xx.o(RESET) refers to stm32f7xx_it.o(i.EXTI15_10_IRQHandler) for EXTI15_10_IRQHandler
    startup_stm32f767xx.o(RESET) refers to stm32f7xx_it.o(i.DMA2_Stream0_IRQHandler) for DMA2_Stream0_IRQHandler
    startup_stm32f767xx.o(RESET) refers to stm32f7xx_it.o(i.DMA2_Stream1_IRQHandler) for DMA2_Stream1_IRQHandler
    startup_stm32f767xx.o(RESET) refers to stm32f7xx_it.o(i.DMA2_Stream2_IRQHandler) for DMA2_Stream2_IRQHandler
    startup_stm32f767xx.o(.text) refers to system_stm32f7xx.o(i.SystemInit) for SystemInit
    startup_stm32f767xx.o(.text) refers to entry.o(.ARM.Collect$$$$00000000) for __main
    stm32f7xx_hal_adc.o(i.ADC_DMAConvCplt) refers to conversion.o(i.HAL_ADC_ConvCpltCallback) for HAL_ADC_ConvCpltCallback
    stm32f7xx_hal_adc.o(i.ADC_DMAError) refers to stm32f7xx_hal_adc.o(i.HAL_ADC_ErrorCallback) for HAL_ADC_ErrorCallback
    stm32f7xx_hal_adc.o(i.ADC_DMAHalfConvCplt) refers to stm32f7xx_hal_adc.o(i.HAL_ADC_ConvHalfCpltCallback) for HAL_ADC_ConvHalfCpltCallback
    stm32f7xx_hal_adc.o(i.HAL_ADC_ConfigChannel) refers to system_stm32f7xx.o(.data) for SystemCoreClock
    stm32f7xx_hal_adc.o(i.HAL_ADC_DeInit) refers to adc.o(i.HAL_ADC_MspDeInit) for HAL_ADC_MspDeInit
    stm32f7xx_hal_adc.o(i.HAL_ADC_IRQHandler) refers to conversion.o(i.HAL_ADC_ConvCpltCallback) for HAL_ADC_ConvCpltCallback
    stm32f7xx_hal_adc.o(i.HAL_ADC_IRQHandler) refers to stm32f7xx_hal_adc_ex.o(i.HAL_ADCEx_InjectedConvCpltCallback) for HAL_ADCEx_InjectedConvCpltCallback
    stm32f7xx_hal_adc.o(i.HAL_ADC_IRQHandler) refers to stm32f7xx_hal_adc.o(i.HAL_ADC_LevelOutOfWindowCallback) for HAL_ADC_LevelOutOfWindowCallback
    stm32f7xx_hal_adc.o(i.HAL_ADC_IRQHandler) refers to stm32f7xx_hal_adc.o(i.HAL_ADC_ErrorCallback) for HAL_ADC_ErrorCallback
    stm32f7xx_hal_adc.o(i.HAL_ADC_Init) refers to adc.o(i.HAL_ADC_MspInit) for HAL_ADC_MspInit
    stm32f7xx_hal_adc.o(i.HAL_ADC_PollForConversion) refers to stm32f7xx_hal.o(i.HAL_GetTick) for HAL_GetTick
    stm32f7xx_hal_adc.o(i.HAL_ADC_PollForEvent) refers to stm32f7xx_hal.o(i.HAL_GetTick) for HAL_GetTick
    stm32f7xx_hal_adc.o(i.HAL_ADC_Start) refers to system_stm32f7xx.o(.data) for SystemCoreClock
    stm32f7xx_hal_adc.o(i.HAL_ADC_Start_DMA) refers to stm32f7xx_hal_dma.o(i.HAL_DMA_Start_IT) for HAL_DMA_Start_IT
    stm32f7xx_hal_adc.o(i.HAL_ADC_Start_DMA) refers to system_stm32f7xx.o(.data) for SystemCoreClock
    stm32f7xx_hal_adc.o(i.HAL_ADC_Start_DMA) refers to stm32f7xx_hal_adc.o(i.ADC_DMAConvCplt) for ADC_DMAConvCplt
    stm32f7xx_hal_adc.o(i.HAL_ADC_Start_DMA) refers to stm32f7xx_hal_adc.o(i.ADC_DMAHalfConvCplt) for ADC_DMAHalfConvCplt
    stm32f7xx_hal_adc.o(i.HAL_ADC_Start_DMA) refers to stm32f7xx_hal_adc.o(i.ADC_DMAError) for ADC_DMAError
    stm32f7xx_hal_adc.o(i.HAL_ADC_Start_IT) refers to system_stm32f7xx.o(.data) for SystemCoreClock
    stm32f7xx_hal_adc.o(i.HAL_ADC_Stop_DMA) refers to stm32f7xx_hal_dma.o(i.HAL_DMA_Abort) for HAL_DMA_Abort
    stm32f7xx_hal_rtc.o(i.HAL_RTC_AlarmIRQHandler) refers to stm32f7xx_hal_rtc.o(i.HAL_RTC_AlarmAEventCallback) for HAL_RTC_AlarmAEventCallback
    stm32f7xx_hal_rtc.o(i.HAL_RTC_AlarmIRQHandler) refers to stm32f7xx_hal_rtc_ex.o(i.HAL_RTCEx_AlarmBEventCallback) for HAL_RTCEx_AlarmBEventCallback
    stm32f7xx_hal_rtc.o(i.HAL_RTC_DeInit) refers to stm32f7xx_hal.o(i.HAL_GetTick) for HAL_GetTick
    stm32f7xx_hal_rtc.o(i.HAL_RTC_DeInit) refers to rtc.o(i.HAL_RTC_MspDeInit) for HAL_RTC_MspDeInit
    stm32f7xx_hal_rtc.o(i.HAL_RTC_DeactivateAlarm) refers to stm32f7xx_hal.o(i.HAL_GetTick) for HAL_GetTick
    stm32f7xx_hal_rtc.o(i.HAL_RTC_Init) refers to rtc.o(i.HAL_RTC_MspInit) for HAL_RTC_MspInit
    stm32f7xx_hal_rtc.o(i.HAL_RTC_Init) refers to stm32f7xx_hal.o(i.HAL_GetTick) for HAL_GetTick
    stm32f7xx_hal_rtc.o(i.HAL_RTC_PollForAlarmAEvent) refers to stm32f7xx_hal.o(i.HAL_GetTick) for HAL_GetTick
    stm32f7xx_hal_rtc.o(i.HAL_RTC_SetAlarm) refers to stm32f7xx_hal_rtc.o(i.RTC_ByteToBcd2) for RTC_ByteToBcd2
    stm32f7xx_hal_rtc.o(i.HAL_RTC_SetAlarm) refers to stm32f7xx_hal.o(i.HAL_GetTick) for HAL_GetTick
    stm32f7xx_hal_rtc.o(i.HAL_RTC_SetAlarm_IT) refers to stm32f7xx_hal_rtc.o(i.RTC_ByteToBcd2) for RTC_ByteToBcd2
    stm32f7xx_hal_rtc.o(i.HAL_RTC_SetAlarm_IT) refers to stm32f7xx_hal.o(i.HAL_GetTick) for HAL_GetTick
    stm32f7xx_hal_rtc.o(i.HAL_RTC_SetDate) refers to stm32f7xx_hal_rtc.o(i.RTC_ByteToBcd2) for RTC_ByteToBcd2
    stm32f7xx_hal_rtc.o(i.HAL_RTC_SetDate) refers to stm32f7xx_hal.o(i.HAL_GetTick) for HAL_GetTick
    stm32f7xx_hal_rtc.o(i.HAL_RTC_SetTime) refers to stm32f7xx_hal_rtc.o(i.RTC_ByteToBcd2) for RTC_ByteToBcd2
    stm32f7xx_hal_rtc.o(i.HAL_RTC_SetTime) refers to stm32f7xx_hal.o(i.HAL_GetTick) for HAL_GetTick
    stm32f7xx_hal_rtc.o(i.HAL_RTC_WaitForSynchro) refers to stm32f7xx_hal.o(i.HAL_GetTick) for HAL_GetTick
    stm32f7xx_hal_rtc.o(i.RTC_EnterInitMode) refers to stm32f7xx_hal.o(i.HAL_GetTick) for HAL_GetTick
    stm32f7xx_hal_flash.o(i.FLASH_WaitForLastOperation) refers to stm32f7xx_hal.o(i.HAL_GetTick) for HAL_GetTick
    stm32f7xx_hal_flash.o(i.FLASH_WaitForLastOperation) refers to stm32f7xx_hal_flash.o(.bss) for .bss
    stm32f7xx_hal_flash.o(i.HAL_FLASH_GetError) refers to stm32f7xx_hal_flash.o(.bss) for .bss
    stm32f7xx_hal_flash.o(i.HAL_FLASH_IRQHandler) refers to stm32f7xx_hal_flash.o(i.HAL_FLASH_EndOfOperationCallback) for HAL_FLASH_EndOfOperationCallback
    stm32f7xx_hal_flash.o(i.HAL_FLASH_IRQHandler) refers to stm32f7xx_hal_flash_ex.o(i.FLASH_Erase_Sector) for FLASH_Erase_Sector
    stm32f7xx_hal_flash.o(i.HAL_FLASH_IRQHandler) refers to stm32f7xx_hal_flash.o(i.HAL_FLASH_OperationErrorCallback) for HAL_FLASH_OperationErrorCallback
    stm32f7xx_hal_flash.o(i.HAL_FLASH_IRQHandler) refers to stm32f7xx_hal_flash.o(.bss) for .bss
    stm32f7xx_hal_flash.o(i.HAL_FLASH_OB_Launch) refers to stm32f7xx_hal_flash.o(i.FLASH_WaitForLastOperation) for FLASH_WaitForLastOperation
    stm32f7xx_hal_flash.o(i.HAL_FLASH_Program) refers to stm32f7xx_hal_flash.o(i.FLASH_WaitForLastOperation) for FLASH_WaitForLastOperation
    stm32f7xx_hal_flash.o(i.HAL_FLASH_Program) refers to stm32f7xx_hal_flash.o(.bss) for .bss
    stm32f7xx_hal_flash.o(i.HAL_FLASH_Program_IT) refers to stm32f7xx_hal_flash.o(.bss) for .bss
    stm32f7xx_hal_cortex.o(i.HAL_SYSTICK_IRQHandler) refers to stm32f7xx_hal_cortex.o(i.HAL_SYSTICK_Callback) for HAL_SYSTICK_Callback
    stm32f7xx_hal_gpio.o(i.HAL_GPIO_EXTI_IRQHandler) refers to main.o(i.HAL_GPIO_EXTI_Callback) for HAL_GPIO_EXTI_Callback
    stm32f7xx_hal_tim.o(i.HAL_TIM_Base_DeInit) refers to tim.o(i.HAL_TIM_Base_MspDeInit) for HAL_TIM_Base_MspDeInit
    stm32f7xx_hal_tim.o(i.HAL_TIM_Base_Init) refers to tim.o(i.HAL_TIM_Base_MspInit) for HAL_TIM_Base_MspInit
    stm32f7xx_hal_tim.o(i.HAL_TIM_Base_Init) refers to stm32f7xx_hal_tim.o(i.TIM_Base_SetConfig) for TIM_Base_SetConfig
    stm32f7xx_hal_tim.o(i.HAL_TIM_Base_Start_DMA) refers to stm32f7xx_hal_dma.o(i.HAL_DMA_Start_IT) for HAL_DMA_Start_IT
    stm32f7xx_hal_tim.o(i.HAL_TIM_Base_Start_DMA) refers to stm32f7xx_hal_tim.o(i.TIM_DMAPeriodElapsedCplt) for TIM_DMAPeriodElapsedCplt
    stm32f7xx_hal_tim.o(i.HAL_TIM_Base_Start_DMA) refers to stm32f7xx_hal_tim.o(i.TIM_DMAError) for TIM_DMAError
    stm32f7xx_hal_tim.o(i.HAL_TIM_DMABurst_ReadStart) refers to stm32f7xx_hal_dma.o(i.HAL_DMA_Start_IT) for HAL_DMA_Start_IT
    stm32f7xx_hal_tim.o(i.HAL_TIM_DMABurst_ReadStart) refers to stm32f7xx_hal_tim.o(i.TIM_DMAError) for TIM_DMAError
    stm32f7xx_hal_tim.o(i.HAL_TIM_DMABurst_ReadStart) refers to stm32f7xx_hal_tim.o(i.TIM_DMACaptureCplt) for TIM_DMACaptureCplt
    stm32f7xx_hal_tim.o(i.HAL_TIM_DMABurst_ReadStart) refers to stm32f7xx_hal_tim.o(i.TIM_DMAPeriodElapsedCplt) for TIM_DMAPeriodElapsedCplt
    stm32f7xx_hal_tim.o(i.HAL_TIM_DMABurst_ReadStart) refers to stm32f7xx_hal_tim_ex.o(i.TIMEx_DMACommutationCplt) for TIMEx_DMACommutationCplt
    stm32f7xx_hal_tim.o(i.HAL_TIM_DMABurst_ReadStart) refers to stm32f7xx_hal_tim.o(i.TIM_DMATriggerCplt) for TIM_DMATriggerCplt
    stm32f7xx_hal_tim.o(i.HAL_TIM_DMABurst_ReadStop) refers to stm32f7xx_hal_dma.o(i.HAL_DMA_Abort) for HAL_DMA_Abort
    stm32f7xx_hal_tim.o(i.HAL_TIM_DMABurst_WriteStart) refers to stm32f7xx_hal_dma.o(i.HAL_DMA_Start_IT) for HAL_DMA_Start_IT
    stm32f7xx_hal_tim.o(i.HAL_TIM_DMABurst_WriteStart) refers to stm32f7xx_hal_tim.o(i.TIM_DMAError) for TIM_DMAError
    stm32f7xx_hal_tim.o(i.HAL_TIM_DMABurst_WriteStart) refers to stm32f7xx_hal_tim.o(i.TIM_DMADelayPulseCplt) for TIM_DMADelayPulseCplt
    stm32f7xx_hal_tim.o(i.HAL_TIM_DMABurst_WriteStart) refers to stm32f7xx_hal_tim.o(i.TIM_DMAPeriodElapsedCplt) for TIM_DMAPeriodElapsedCplt
    stm32f7xx_hal_tim.o(i.HAL_TIM_DMABurst_WriteStart) refers to stm32f7xx_hal_tim_ex.o(i.TIMEx_DMACommutationCplt) for TIMEx_DMACommutationCplt
    stm32f7xx_hal_tim.o(i.HAL_TIM_DMABurst_WriteStart) refers to stm32f7xx_hal_tim.o(i.TIM_DMATriggerCplt) for TIM_DMATriggerCplt
    stm32f7xx_hal_tim.o(i.HAL_TIM_DMABurst_WriteStop) refers to stm32f7xx_hal_dma.o(i.HAL_DMA_Abort) for HAL_DMA_Abort
    stm32f7xx_hal_tim.o(i.HAL_TIM_Encoder_DeInit) refers to stm32f7xx_hal_tim.o(i.HAL_TIM_Encoder_MspDeInit) for HAL_TIM_Encoder_MspDeInit
    stm32f7xx_hal_tim.o(i.HAL_TIM_Encoder_Init) refers to stm32f7xx_hal_tim.o(i.HAL_TIM_Encoder_MspInit) for HAL_TIM_Encoder_MspInit
    stm32f7xx_hal_tim.o(i.HAL_TIM_Encoder_Init) refers to stm32f7xx_hal_tim.o(i.TIM_Base_SetConfig) for TIM_Base_SetConfig
    stm32f7xx_hal_tim.o(i.HAL_TIM_Encoder_Start_DMA) refers to stm32f7xx_hal_dma.o(i.HAL_DMA_Start_IT) for HAL_DMA_Start_IT
    stm32f7xx_hal_tim.o(i.HAL_TIM_Encoder_Start_DMA) refers to stm32f7xx_hal_tim.o(i.TIM_DMACaptureCplt) for TIM_DMACaptureCplt
    stm32f7xx_hal_tim.o(i.HAL_TIM_Encoder_Start_DMA) refers to stm32f7xx_hal_tim.o(i.TIM_DMAError) for TIM_DMAError
    stm32f7xx_hal_tim.o(i.HAL_TIM_IC_DeInit) refers to stm32f7xx_hal_tim.o(i.HAL_TIM_IC_MspDeInit) for HAL_TIM_IC_MspDeInit
    stm32f7xx_hal_tim.o(i.HAL_TIM_IC_Init) refers to stm32f7xx_hal_tim.o(i.HAL_TIM_IC_MspInit) for HAL_TIM_IC_MspInit
    stm32f7xx_hal_tim.o(i.HAL_TIM_IC_Init) refers to stm32f7xx_hal_tim.o(i.TIM_Base_SetConfig) for TIM_Base_SetConfig
    stm32f7xx_hal_tim.o(i.HAL_TIM_IC_Start_DMA) refers to stm32f7xx_hal_dma.o(i.HAL_DMA_Start_IT) for HAL_DMA_Start_IT
    stm32f7xx_hal_tim.o(i.HAL_TIM_IC_Start_DMA) refers to stm32f7xx_hal_tim.o(i.TIM_DMACaptureCplt) for TIM_DMACaptureCplt
    stm32f7xx_hal_tim.o(i.HAL_TIM_IC_Start_DMA) refers to stm32f7xx_hal_tim.o(i.TIM_DMAError) for TIM_DMAError
    stm32f7xx_hal_tim.o(i.HAL_TIM_IRQHandler) refers to stm32f7xx_hal_tim.o(i.HAL_TIM_IC_CaptureCallback) for HAL_TIM_IC_CaptureCallback
    stm32f7xx_hal_tim.o(i.HAL_TIM_IRQHandler) refers to stm32f7xx_hal_tim.o(i.HAL_TIM_OC_DelayElapsedCallback) for HAL_TIM_OC_DelayElapsedCallback
    stm32f7xx_hal_tim.o(i.HAL_TIM_IRQHandler) refers to stm32f7xx_hal_tim.o(i.HAL_TIM_PWM_PulseFinishedCallback) for HAL_TIM_PWM_PulseFinishedCallback
    stm32f7xx_hal_tim.o(i.HAL_TIM_IRQHandler) refers to stm32f7xx_hal_tim.o(i.HAL_TIM_PeriodElapsedCallback) for HAL_TIM_PeriodElapsedCallback
    stm32f7xx_hal_tim.o(i.HAL_TIM_IRQHandler) refers to stm32f7xx_hal_tim_ex.o(i.HAL_TIMEx_BreakCallback) for HAL_TIMEx_BreakCallback
    stm32f7xx_hal_tim.o(i.HAL_TIM_IRQHandler) refers to stm32f7xx_hal_tim.o(i.HAL_TIM_TriggerCallback) for HAL_TIM_TriggerCallback
    stm32f7xx_hal_tim.o(i.HAL_TIM_IRQHandler) refers to stm32f7xx_hal_tim_ex.o(i.HAL_TIMEx_CommutationCallback) for HAL_TIMEx_CommutationCallback
    stm32f7xx_hal_tim.o(i.HAL_TIM_OC_DeInit) refers to stm32f7xx_hal_tim.o(i.HAL_TIM_OC_MspDeInit) for HAL_TIM_OC_MspDeInit
    stm32f7xx_hal_tim.o(i.HAL_TIM_OC_Init) refers to stm32f7xx_hal_tim.o(i.HAL_TIM_OC_MspInit) for HAL_TIM_OC_MspInit
    stm32f7xx_hal_tim.o(i.HAL_TIM_OC_Init) refers to stm32f7xx_hal_tim.o(i.TIM_Base_SetConfig) for TIM_Base_SetConfig
    stm32f7xx_hal_tim.o(i.HAL_TIM_OC_Start_DMA) refers to stm32f7xx_hal_dma.o(i.HAL_DMA_Start_IT) for HAL_DMA_Start_IT
    stm32f7xx_hal_tim.o(i.HAL_TIM_OC_Start_DMA) refers to stm32f7xx_hal_tim.o(i.TIM_DMADelayPulseCplt) for TIM_DMADelayPulseCplt
    stm32f7xx_hal_tim.o(i.HAL_TIM_OC_Start_DMA) refers to stm32f7xx_hal_tim.o(i.TIM_DMAError) for TIM_DMAError
    stm32f7xx_hal_tim.o(i.HAL_TIM_OnePulse_DeInit) refers to stm32f7xx_hal_tim.o(i.HAL_TIM_OnePulse_MspDeInit) for HAL_TIM_OnePulse_MspDeInit
    stm32f7xx_hal_tim.o(i.HAL_TIM_OnePulse_Init) refers to stm32f7xx_hal_tim.o(i.HAL_TIM_OnePulse_MspInit) for HAL_TIM_OnePulse_MspInit
    stm32f7xx_hal_tim.o(i.HAL_TIM_OnePulse_Init) refers to stm32f7xx_hal_tim.o(i.TIM_Base_SetConfig) for TIM_Base_SetConfig
    stm32f7xx_hal_tim.o(i.HAL_TIM_PWM_DeInit) refers to stm32f7xx_hal_tim.o(i.HAL_TIM_PWM_MspDeInit) for HAL_TIM_PWM_MspDeInit
    stm32f7xx_hal_tim.o(i.HAL_TIM_PWM_Init) refers to stm32f7xx_hal_tim.o(i.HAL_TIM_PWM_MspInit) for HAL_TIM_PWM_MspInit
    stm32f7xx_hal_tim.o(i.HAL_TIM_PWM_Init) refers to stm32f7xx_hal_tim.o(i.TIM_Base_SetConfig) for TIM_Base_SetConfig
    stm32f7xx_hal_tim.o(i.HAL_TIM_PWM_Start_DMA) refers to stm32f7xx_hal_dma.o(i.HAL_DMA_Start_IT) for HAL_DMA_Start_IT
    stm32f7xx_hal_tim.o(i.HAL_TIM_PWM_Start_DMA) refers to stm32f7xx_hal_tim.o(i.TIM_DMADelayPulseCplt) for TIM_DMADelayPulseCplt
    stm32f7xx_hal_tim.o(i.HAL_TIM_PWM_Start_DMA) refers to stm32f7xx_hal_tim.o(i.TIM_DMAError) for TIM_DMAError
    stm32f7xx_hal_tim.o(i.TIM_DMACaptureCplt) refers to stm32f7xx_hal_tim.o(i.HAL_TIM_IC_CaptureCallback) for HAL_TIM_IC_CaptureCallback
    stm32f7xx_hal_tim.o(i.TIM_DMADelayPulseCplt) refers to stm32f7xx_hal_tim.o(i.HAL_TIM_PWM_PulseFinishedCallback) for HAL_TIM_PWM_PulseFinishedCallback
    stm32f7xx_hal_tim.o(i.TIM_DMAError) refers to stm32f7xx_hal_tim.o(i.HAL_TIM_ErrorCallback) for HAL_TIM_ErrorCallback
    stm32f7xx_hal_tim.o(i.TIM_DMAPeriodElapsedCplt) refers to stm32f7xx_hal_tim.o(i.HAL_TIM_PeriodElapsedCallback) for HAL_TIM_PeriodElapsedCallback
    stm32f7xx_hal_tim.o(i.TIM_DMATriggerCplt) refers to stm32f7xx_hal_tim.o(i.HAL_TIM_TriggerCallback) for HAL_TIM_TriggerCallback
    stm32f7xx_hal_adc_ex.o(i.ADC_MultiModeDMAConvCplt) refers to conversion.o(i.HAL_ADC_ConvCpltCallback) for HAL_ADC_ConvCpltCallback
    stm32f7xx_hal_adc_ex.o(i.ADC_MultiModeDMAError) refers to stm32f7xx_hal_adc.o(i.HAL_ADC_ErrorCallback) for HAL_ADC_ErrorCallback
    stm32f7xx_hal_adc_ex.o(i.ADC_MultiModeDMAHalfConvCplt) refers to stm32f7xx_hal_adc.o(i.HAL_ADC_ConvHalfCpltCallback) for HAL_ADC_ConvHalfCpltCallback
    stm32f7xx_hal_adc_ex.o(i.HAL_ADCEx_InjectedPollForConversion) refers to stm32f7xx_hal.o(i.HAL_GetTick) for HAL_GetTick
    stm32f7xx_hal_adc_ex.o(i.HAL_ADCEx_InjectedStart) refers to system_stm32f7xx.o(.data) for SystemCoreClock
    stm32f7xx_hal_adc_ex.o(i.HAL_ADCEx_InjectedStart_IT) refers to system_stm32f7xx.o(.data) for SystemCoreClock
    stm32f7xx_hal_adc_ex.o(i.HAL_ADCEx_MultiModeStart_DMA) refers to stm32f7xx_hal_dma.o(i.HAL_DMA_Start_IT) for HAL_DMA_Start_IT
    stm32f7xx_hal_adc_ex.o(i.HAL_ADCEx_MultiModeStart_DMA) refers to system_stm32f7xx.o(.data) for SystemCoreClock
    stm32f7xx_hal_adc_ex.o(i.HAL_ADCEx_MultiModeStart_DMA) refers to stm32f7xx_hal_adc_ex.o(i.ADC_MultiModeDMAConvCplt) for ADC_MultiModeDMAConvCplt
    stm32f7xx_hal_adc_ex.o(i.HAL_ADCEx_MultiModeStart_DMA) refers to stm32f7xx_hal_adc_ex.o(i.ADC_MultiModeDMAHalfConvCplt) for ADC_MultiModeDMAHalfConvCplt
    stm32f7xx_hal_adc_ex.o(i.HAL_ADCEx_MultiModeStart_DMA) refers to stm32f7xx_hal_adc_ex.o(i.ADC_MultiModeDMAError) for ADC_MultiModeDMAError
    stm32f7xx_hal_adc_ex.o(i.HAL_ADCEx_MultiModeStop_DMA) refers to stm32f7xx_hal_dma.o(i.HAL_DMA_Abort) for HAL_DMA_Abort
    stm32f7xx_hal_pwr_ex.o(i.HAL_PWREx_ControlVoltageScaling) refers to stm32f7xx_hal.o(i.HAL_GetTick) for HAL_GetTick
    stm32f7xx_hal_pwr_ex.o(i.HAL_PWREx_DisableBkUpReg) refers to stm32f7xx_hal.o(i.HAL_GetTick) for HAL_GetTick
    stm32f7xx_hal_pwr_ex.o(i.HAL_PWREx_DisableOverDrive) refers to stm32f7xx_hal.o(i.HAL_GetTick) for HAL_GetTick
    stm32f7xx_hal_pwr_ex.o(i.HAL_PWREx_EnableBkUpReg) refers to stm32f7xx_hal.o(i.HAL_GetTick) for HAL_GetTick
    stm32f7xx_hal_pwr_ex.o(i.HAL_PWREx_EnableOverDrive) refers to stm32f7xx_hal.o(i.HAL_GetTick) for HAL_GetTick
    stm32f7xx_hal_pwr_ex.o(i.HAL_PWREx_EnterUnderDriveSTOPMode) refers to stm32f7xx_hal.o(i.HAL_GetTick) for HAL_GetTick
    stm32f7xx_hal.o(i.HAL_DeInit) refers to stm32f7xx_hal.o(i.HAL_MspDeInit) for HAL_MspDeInit
    stm32f7xx_hal.o(i.HAL_Delay) refers to stm32f7xx_hal.o(i.HAL_GetTick) for HAL_GetTick
    stm32f7xx_hal.o(i.HAL_GetTick) refers to stm32f7xx_hal.o(.data) for .data
    stm32f7xx_hal.o(i.HAL_IncTick) refers to stm32f7xx_hal.o(.data) for .data
    stm32f7xx_hal.o(i.HAL_Init) refers to stm32f7xx_hal_cortex.o(i.HAL_NVIC_SetPriorityGrouping) for HAL_NVIC_SetPriorityGrouping
    stm32f7xx_hal.o(i.HAL_Init) refers to stm32f7xx_hal.o(i.HAL_InitTick) for HAL_InitTick
    stm32f7xx_hal.o(i.HAL_Init) refers to stm32f7xx_hal_msp.o(i.HAL_MspInit) for HAL_MspInit
    stm32f7xx_hal.o(i.HAL_InitTick) refers to stm32f7xx_hal_cortex.o(i.HAL_SYSTICK_Config) for HAL_SYSTICK_Config
    stm32f7xx_hal.o(i.HAL_InitTick) refers to stm32f7xx_hal_cortex.o(i.HAL_NVIC_SetPriority) for HAL_NVIC_SetPriority
    stm32f7xx_hal.o(i.HAL_InitTick) refers to system_stm32f7xx.o(.data) for SystemCoreClock
    stm32f7xx_hal_dma.o(i.HAL_DMA_Abort) refers to stm32f7xx_hal.o(i.HAL_GetTick) for HAL_GetTick
    stm32f7xx_hal_dma.o(i.HAL_DMA_DeInit) refers to stm32f7xx_hal_dma.o(.constdata) for .constdata
    stm32f7xx_hal_dma.o(i.HAL_DMA_IRQHandler) refers to system_stm32f7xx.o(.data) for SystemCoreClock
    stm32f7xx_hal_dma.o(i.HAL_DMA_Init) refers to stm32f7xx_hal.o(i.HAL_GetTick) for HAL_GetTick
    stm32f7xx_hal_dma.o(i.HAL_DMA_Init) refers to stm32f7xx_hal_dma.o(.constdata) for .constdata
    stm32f7xx_hal_dma.o(i.HAL_DMA_PollForTransfer) refers to stm32f7xx_hal.o(i.HAL_GetTick) for HAL_GetTick
    stm32f7xx_hal_pwr.o(i.HAL_PWR_PVD_IRQHandler) refers to stm32f7xx_hal_pwr.o(i.HAL_PWR_PVDCallback) for HAL_PWR_PVDCallback
    stm32f7xx_hal_rcc_ex.o(i.HAL_RCCEx_PeriphCLKConfig) refers to stm32f7xx_hal.o(i.HAL_GetTick) for HAL_GetTick
    stm32f7xx_hal_rtc_ex.o(i.HAL_RTCEx_DeactivateRefClock) refers to stm32f7xx_hal_rtc.o(i.RTC_EnterInitMode) for RTC_EnterInitMode
    stm32f7xx_hal_rtc_ex.o(i.HAL_RTCEx_DeactivateWakeUpTimer) refers to stm32f7xx_hal.o(i.HAL_GetTick) for HAL_GetTick
    stm32f7xx_hal_rtc_ex.o(i.HAL_RTCEx_GetTimeStamp) refers to stm32f7xx_hal_rtc.o(i.RTC_Bcd2ToByte) for RTC_Bcd2ToByte
    stm32f7xx_hal_rtc_ex.o(i.HAL_RTCEx_PollForAlarmBEvent) refers to stm32f7xx_hal.o(i.HAL_GetTick) for HAL_GetTick
    stm32f7xx_hal_rtc_ex.o(i.HAL_RTCEx_PollForTamper1Event) refers to stm32f7xx_hal.o(i.HAL_GetTick) for HAL_GetTick
    stm32f7xx_hal_rtc_ex.o(i.HAL_RTCEx_PollForTamper2Event) refers to stm32f7xx_hal.o(i.HAL_GetTick) for HAL_GetTick
    stm32f7xx_hal_rtc_ex.o(i.HAL_RTCEx_PollForTamper3Event) refers to stm32f7xx_hal.o(i.HAL_GetTick) for HAL_GetTick
    stm32f7xx_hal_rtc_ex.o(i.HAL_RTCEx_PollForTimeStampEvent) refers to stm32f7xx_hal.o(i.HAL_GetTick) for HAL_GetTick
    stm32f7xx_hal_rtc_ex.o(i.HAL_RTCEx_PollForWakeUpTimerEvent) refers to stm32f7xx_hal.o(i.HAL_GetTick) for HAL_GetTick
    stm32f7xx_hal_rtc_ex.o(i.HAL_RTCEx_SetRefClock) refers to stm32f7xx_hal_rtc.o(i.RTC_EnterInitMode) for RTC_EnterInitMode
    stm32f7xx_hal_rtc_ex.o(i.HAL_RTCEx_SetSmoothCalib) refers to stm32f7xx_hal.o(i.HAL_GetTick) for HAL_GetTick
    stm32f7xx_hal_rtc_ex.o(i.HAL_RTCEx_SetSynchroShift) refers to stm32f7xx_hal.o(i.HAL_GetTick) for HAL_GetTick
    stm32f7xx_hal_rtc_ex.o(i.HAL_RTCEx_SetSynchroShift) refers to stm32f7xx_hal_rtc.o(i.HAL_RTC_WaitForSynchro) for HAL_RTC_WaitForSynchro
    stm32f7xx_hal_rtc_ex.o(i.HAL_RTCEx_SetWakeUpTimer) refers to stm32f7xx_hal.o(i.HAL_GetTick) for HAL_GetTick
    stm32f7xx_hal_rtc_ex.o(i.HAL_RTCEx_SetWakeUpTimer_IT) refers to stm32f7xx_hal.o(i.HAL_GetTick) for HAL_GetTick
    stm32f7xx_hal_rtc_ex.o(i.HAL_RTCEx_TamperTimeStampIRQHandler) refers to stm32f7xx_hal_rtc_ex.o(i.HAL_RTCEx_TimeStampEventCallback) for HAL_RTCEx_TimeStampEventCallback
    stm32f7xx_hal_rtc_ex.o(i.HAL_RTCEx_TamperTimeStampIRQHandler) refers to stm32f7xx_hal_rtc_ex.o(i.HAL_RTCEx_Tamper1EventCallback) for HAL_RTCEx_Tamper1EventCallback
    stm32f7xx_hal_rtc_ex.o(i.HAL_RTCEx_TamperTimeStampIRQHandler) refers to stm32f7xx_hal_rtc_ex.o(i.HAL_RTCEx_Tamper2EventCallback) for HAL_RTCEx_Tamper2EventCallback
    stm32f7xx_hal_rtc_ex.o(i.HAL_RTCEx_TamperTimeStampIRQHandler) refers to stm32f7xx_hal_rtc_ex.o(i.HAL_RTCEx_Tamper3EventCallback) for HAL_RTCEx_Tamper3EventCallback
    stm32f7xx_hal_rtc_ex.o(i.HAL_RTCEx_WakeUpTimerIRQHandler) refers to stm32f7xx_hal_rtc_ex.o(i.HAL_RTCEx_WakeUpTimerEventCallback) for HAL_RTCEx_WakeUpTimerEventCallback
    stm32f7xx_hal_rcc.o(i.HAL_RCC_ClockConfig) refers to stm32f7xx_hal.o(i.HAL_GetTick) for HAL_GetTick
    stm32f7xx_hal_rcc.o(i.HAL_RCC_ClockConfig) refers to stm32f7xx_hal.o(i.HAL_InitTick) for HAL_InitTick
    stm32f7xx_hal_rcc.o(i.HAL_RCC_ClockConfig) refers to system_stm32f7xx.o(.constdata) for AHBPrescTable
    stm32f7xx_hal_rcc.o(i.HAL_RCC_ClockConfig) refers to system_stm32f7xx.o(.data) for SystemCoreClock
    stm32f7xx_hal_rcc.o(i.HAL_RCC_DeInit) refers to system_stm32f7xx.o(.data) for SystemCoreClock
    stm32f7xx_hal_rcc.o(i.HAL_RCC_GetHCLKFreq) refers to system_stm32f7xx.o(.data) for SystemCoreClock
    stm32f7xx_hal_rcc.o(i.HAL_RCC_GetPCLK1Freq) refers to system_stm32f7xx.o(.data) for SystemCoreClock
    stm32f7xx_hal_rcc.o(i.HAL_RCC_GetPCLK1Freq) refers to system_stm32f7xx.o(.constdata) for APBPrescTable
    stm32f7xx_hal_rcc.o(i.HAL_RCC_GetPCLK2Freq) refers to system_stm32f7xx.o(.data) for SystemCoreClock
    stm32f7xx_hal_rcc.o(i.HAL_RCC_GetPCLK2Freq) refers to system_stm32f7xx.o(.constdata) for APBPrescTable
    stm32f7xx_hal_rcc.o(i.HAL_RCC_MCOConfig) refers to stm32f7xx_hal_gpio.o(i.HAL_GPIO_Init) for HAL_GPIO_Init
    stm32f7xx_hal_rcc.o(i.HAL_RCC_NMI_IRQHandler) refers to stm32f7xx_hal_rcc.o(i.HAL_RCC_CSSCallback) for HAL_RCC_CSSCallback
    stm32f7xx_hal_rcc.o(i.HAL_RCC_OscConfig) refers to stm32f7xx_hal.o(i.HAL_GetTick) for HAL_GetTick
    stm32f7xx_hal_tim_ex.o(i.HAL_TIMEx_ConfigCommutationEvent_DMA) refers to stm32f7xx_hal_tim_ex.o(i.TIMEx_DMACommutationCplt) for TIMEx_DMACommutationCplt
    stm32f7xx_hal_tim_ex.o(i.HAL_TIMEx_ConfigCommutationEvent_DMA) refers to stm32f7xx_hal_tim.o(i.TIM_DMAError) for TIM_DMAError
    stm32f7xx_hal_tim_ex.o(i.HAL_TIMEx_HallSensor_DeInit) refers to stm32f7xx_hal_tim_ex.o(i.HAL_TIMEx_HallSensor_MspDeInit) for HAL_TIMEx_HallSensor_MspDeInit
    stm32f7xx_hal_tim_ex.o(i.HAL_TIMEx_HallSensor_Init) refers to stm32f7xx_hal_tim_ex.o(i.HAL_TIMEx_HallSensor_MspInit) for HAL_TIMEx_HallSensor_MspInit
    stm32f7xx_hal_tim_ex.o(i.HAL_TIMEx_HallSensor_Init) refers to stm32f7xx_hal_tim.o(i.TIM_Base_SetConfig) for TIM_Base_SetConfig
    stm32f7xx_hal_tim_ex.o(i.HAL_TIMEx_HallSensor_Init) refers to stm32f7xx_hal_tim.o(i.TIM_TI1_SetConfig) for TIM_TI1_SetConfig
    stm32f7xx_hal_tim_ex.o(i.HAL_TIMEx_HallSensor_Init) refers to stm32f7xx_hal_tim.o(i.TIM_OC2_SetConfig) for TIM_OC2_SetConfig
    stm32f7xx_hal_tim_ex.o(i.HAL_TIMEx_HallSensor_Start) refers to stm32f7xx_hal_tim.o(i.TIM_CCxChannelCmd) for TIM_CCxChannelCmd
    stm32f7xx_hal_tim_ex.o(i.HAL_TIMEx_HallSensor_Start_DMA) refers to stm32f7xx_hal_tim.o(i.TIM_CCxChannelCmd) for TIM_CCxChannelCmd
    stm32f7xx_hal_tim_ex.o(i.HAL_TIMEx_HallSensor_Start_DMA) refers to stm32f7xx_hal_dma.o(i.HAL_DMA_Start_IT) for HAL_DMA_Start_IT
    stm32f7xx_hal_tim_ex.o(i.HAL_TIMEx_HallSensor_Start_DMA) refers to stm32f7xx_hal_tim.o(i.TIM_DMACaptureCplt) for TIM_DMACaptureCplt
    stm32f7xx_hal_tim_ex.o(i.HAL_TIMEx_HallSensor_Start_DMA) refers to stm32f7xx_hal_tim.o(i.TIM_DMAError) for TIM_DMAError
    stm32f7xx_hal_tim_ex.o(i.HAL_TIMEx_HallSensor_Start_IT) refers to stm32f7xx_hal_tim.o(i.TIM_CCxChannelCmd) for TIM_CCxChannelCmd
    stm32f7xx_hal_tim_ex.o(i.HAL_TIMEx_HallSensor_Stop) refers to stm32f7xx_hal_tim.o(i.TIM_CCxChannelCmd) for TIM_CCxChannelCmd
    stm32f7xx_hal_tim_ex.o(i.HAL_TIMEx_HallSensor_Stop_DMA) refers to stm32f7xx_hal_tim.o(i.TIM_CCxChannelCmd) for TIM_CCxChannelCmd
    stm32f7xx_hal_tim_ex.o(i.HAL_TIMEx_HallSensor_Stop_IT) refers to stm32f7xx_hal_tim.o(i.TIM_CCxChannelCmd) for TIM_CCxChannelCmd
    stm32f7xx_hal_tim_ex.o(i.HAL_TIMEx_OCN_Start_DMA) refers to stm32f7xx_hal_dma.o(i.HAL_DMA_Start_IT) for HAL_DMA_Start_IT
    stm32f7xx_hal_tim_ex.o(i.HAL_TIMEx_OCN_Start_DMA) refers to stm32f7xx_hal_tim.o(i.TIM_DMADelayPulseCplt) for TIM_DMADelayPulseCplt
    stm32f7xx_hal_tim_ex.o(i.HAL_TIMEx_OCN_Start_DMA) refers to stm32f7xx_hal_tim.o(i.TIM_DMAError) for TIM_DMAError
    stm32f7xx_hal_tim_ex.o(i.HAL_TIMEx_PWMN_Start_DMA) refers to stm32f7xx_hal_dma.o(i.HAL_DMA_Start_IT) for HAL_DMA_Start_IT
    stm32f7xx_hal_tim_ex.o(i.HAL_TIMEx_PWMN_Start_DMA) refers to stm32f7xx_hal_tim.o(i.TIM_DMADelayPulseCplt) for TIM_DMADelayPulseCplt
    stm32f7xx_hal_tim_ex.o(i.HAL_TIMEx_PWMN_Start_DMA) refers to stm32f7xx_hal_tim.o(i.TIM_DMAError) for TIM_DMAError
    stm32f7xx_hal_tim_ex.o(i.HAL_TIM_ConfigOCrefClear) refers to stm32f7xx_hal_tim.o(i.TIM_ETR_SetConfig) for TIM_ETR_SetConfig
    stm32f7xx_hal_tim_ex.o(i.HAL_TIM_OC_ConfigChannel) refers to stm32f7xx_hal_tim.o(i.TIM_OC3_SetConfig) for TIM_OC3_SetConfig
    stm32f7xx_hal_tim_ex.o(i.HAL_TIM_OC_ConfigChannel) refers to stm32f7xx_hal_tim.o(i.TIM_OC1_SetConfig) for TIM_OC1_SetConfig
    stm32f7xx_hal_tim_ex.o(i.HAL_TIM_OC_ConfigChannel) refers to stm32f7xx_hal_tim.o(i.TIM_OC2_SetConfig) for TIM_OC2_SetConfig
    stm32f7xx_hal_tim_ex.o(i.HAL_TIM_OC_ConfigChannel) refers to stm32f7xx_hal_tim.o(i.TIM_OC4_SetConfig) for TIM_OC4_SetConfig
    stm32f7xx_hal_tim_ex.o(i.HAL_TIM_PWM_ConfigChannel) refers to stm32f7xx_hal_tim.o(i.TIM_OC1_SetConfig) for TIM_OC1_SetConfig
    stm32f7xx_hal_tim_ex.o(i.HAL_TIM_PWM_ConfigChannel) refers to stm32f7xx_hal_tim.o(i.TIM_OC2_SetConfig) for TIM_OC2_SetConfig
    stm32f7xx_hal_tim_ex.o(i.HAL_TIM_PWM_ConfigChannel) refers to stm32f7xx_hal_tim.o(i.TIM_OC3_SetConfig) for TIM_OC3_SetConfig
    stm32f7xx_hal_tim_ex.o(i.HAL_TIM_PWM_ConfigChannel) refers to stm32f7xx_hal_tim.o(i.TIM_OC4_SetConfig) for TIM_OC4_SetConfig
    stm32f7xx_hal_tim_ex.o(i.TIMEx_DMACommutationCplt) refers to stm32f7xx_hal_tim_ex.o(i.HAL_TIMEx_CommutationCallback) for HAL_TIMEx_CommutationCallback
    stm32f7xx_hal_flash_ex.o(i.HAL_FLASHEx_Erase) refers to stm32f7xx_hal_flash.o(i.FLASH_WaitForLastOperation) for FLASH_WaitForLastOperation
    stm32f7xx_hal_flash_ex.o(i.HAL_FLASHEx_Erase) refers to stm32f7xx_hal_flash.o(.bss) for pFlash
    stm32f7xx_hal_flash_ex.o(i.HAL_FLASHEx_Erase_IT) refers to stm32f7xx_hal_flash.o(.bss) for pFlash
    stm32f7xx_hal_flash_ex.o(i.HAL_FLASHEx_OBProgram) refers to stm32f7xx_hal_flash.o(i.FLASH_WaitForLastOperation) for FLASH_WaitForLastOperation
    stm32f7xx_hal_flash_ex.o(i.HAL_FLASHEx_OBProgram) refers to stm32f7xx_hal_flash.o(.bss) for pFlash
    stm32f7xx_hal_qspi.o(i.HAL_QSPI_Abort) refers to stm32f7xx_hal.o(i.HAL_GetTick) for HAL_GetTick
    stm32f7xx_hal_qspi.o(i.HAL_QSPI_Abort) refers to stm32f7xx_hal_dma.o(i.HAL_DMA_Abort) for HAL_DMA_Abort
    stm32f7xx_hal_qspi.o(i.HAL_QSPI_Abort) refers to stm32f7xx_hal_qspi.o(i.QSPI_WaitFlagStateUntilTimeout) for QSPI_WaitFlagStateUntilTimeout
    stm32f7xx_hal_qspi.o(i.HAL_QSPI_Abort_IT) refers to stm32f7xx_hal_dma.o(i.HAL_DMA_Abort_IT) for HAL_DMA_Abort_IT
    stm32f7xx_hal_qspi.o(i.HAL_QSPI_Abort_IT) refers to stm32f7xx_hal_qspi.o(i.QSPI_DMAAbortCplt) for QSPI_DMAAbortCplt
    stm32f7xx_hal_qspi.o(i.HAL_QSPI_AutoPolling) refers to stm32f7xx_hal.o(i.HAL_GetTick) for HAL_GetTick
    stm32f7xx_hal_qspi.o(i.HAL_QSPI_AutoPolling) refers to stm32f7xx_hal_qspi.o(i.QSPI_WaitFlagStateUntilTimeout) for QSPI_WaitFlagStateUntilTimeout
    stm32f7xx_hal_qspi.o(i.HAL_QSPI_AutoPolling) refers to stm32f7xx_hal_qspi.o(i.QSPI_Config) for QSPI_Config
    stm32f7xx_hal_qspi.o(i.HAL_QSPI_AutoPolling_IT) refers to stm32f7xx_hal.o(i.HAL_GetTick) for HAL_GetTick
    stm32f7xx_hal_qspi.o(i.HAL_QSPI_AutoPolling_IT) refers to stm32f7xx_hal_qspi.o(i.QSPI_WaitFlagStateUntilTimeout) for QSPI_WaitFlagStateUntilTimeout
    stm32f7xx_hal_qspi.o(i.HAL_QSPI_AutoPolling_IT) refers to stm32f7xx_hal_qspi.o(i.QSPI_Config) for QSPI_Config
    stm32f7xx_hal_qspi.o(i.HAL_QSPI_Command) refers to stm32f7xx_hal.o(i.HAL_GetTick) for HAL_GetTick
    stm32f7xx_hal_qspi.o(i.HAL_QSPI_Command) refers to stm32f7xx_hal_qspi.o(i.QSPI_WaitFlagStateUntilTimeout) for QSPI_WaitFlagStateUntilTimeout
    stm32f7xx_hal_qspi.o(i.HAL_QSPI_Command) refers to stm32f7xx_hal_qspi.o(i.QSPI_Config) for QSPI_Config
    stm32f7xx_hal_qspi.o(i.HAL_QSPI_Command_IT) refers to stm32f7xx_hal.o(i.HAL_GetTick) for HAL_GetTick
    stm32f7xx_hal_qspi.o(i.HAL_QSPI_Command_IT) refers to stm32f7xx_hal_qspi.o(i.QSPI_WaitFlagStateUntilTimeout) for QSPI_WaitFlagStateUntilTimeout
    stm32f7xx_hal_qspi.o(i.HAL_QSPI_Command_IT) refers to stm32f7xx_hal_qspi.o(i.QSPI_Config) for QSPI_Config
    stm32f7xx_hal_qspi.o(i.HAL_QSPI_DeInit) refers to quadspi.o(i.HAL_QSPI_MspDeInit) for HAL_QSPI_MspDeInit
    stm32f7xx_hal_qspi.o(i.HAL_QSPI_IRQHandler) refers to stm32f7xx_hal_qspi.o(i.HAL_QSPI_FifoThresholdCallback) for HAL_QSPI_FifoThresholdCallback
    stm32f7xx_hal_qspi.o(i.HAL_QSPI_IRQHandler) refers to stm32f7xx_hal_qspi.o(i.HAL_QSPI_ErrorCallback) for HAL_QSPI_ErrorCallback
    stm32f7xx_hal_qspi.o(i.HAL_QSPI_IRQHandler) refers to stm32f7xx_hal_qspi.o(i.HAL_QSPI_TxCpltCallback) for HAL_QSPI_TxCpltCallback
    stm32f7xx_hal_qspi.o(i.HAL_QSPI_IRQHandler) refers to stm32f7xx_hal_qspi.o(i.HAL_QSPI_RxCpltCallback) for HAL_QSPI_RxCpltCallback
    stm32f7xx_hal_qspi.o(i.HAL_QSPI_IRQHandler) refers to stm32f7xx_hal_qspi.o(i.HAL_QSPI_CmdCpltCallback) for HAL_QSPI_CmdCpltCallback
    stm32f7xx_hal_qspi.o(i.HAL_QSPI_IRQHandler) refers to stm32f7xx_hal_qspi.o(i.HAL_QSPI_AbortCpltCallback) for HAL_QSPI_AbortCpltCallback
    stm32f7xx_hal_qspi.o(i.HAL_QSPI_IRQHandler) refers to stm32f7xx_hal_qspi.o(i.HAL_QSPI_StatusMatchCallback) for HAL_QSPI_StatusMatchCallback
    stm32f7xx_hal_qspi.o(i.HAL_QSPI_IRQHandler) refers to stm32f7xx_hal_dma.o(i.HAL_DMA_Abort_IT) for HAL_DMA_Abort_IT
    stm32f7xx_hal_qspi.o(i.HAL_QSPI_IRQHandler) refers to stm32f7xx_hal_qspi.o(i.HAL_QSPI_TimeOutCallback) for HAL_QSPI_TimeOutCallback
    stm32f7xx_hal_qspi.o(i.HAL_QSPI_IRQHandler) refers to stm32f7xx_hal_qspi.o(i.QSPI_DMAAbortCplt) for QSPI_DMAAbortCplt
    stm32f7xx_hal_qspi.o(i.HAL_QSPI_Init) refers to stm32f7xx_hal.o(i.HAL_GetTick) for HAL_GetTick
    stm32f7xx_hal_qspi.o(i.HAL_QSPI_Init) refers to quadspi.o(i.HAL_QSPI_MspInit) for HAL_QSPI_MspInit
    stm32f7xx_hal_qspi.o(i.HAL_QSPI_Init) refers to stm32f7xx_hal_qspi.o(i.QSPI_WaitFlagStateUntilTimeout) for QSPI_WaitFlagStateUntilTimeout
    stm32f7xx_hal_qspi.o(i.HAL_QSPI_MemoryMapped) refers to stm32f7xx_hal.o(i.HAL_GetTick) for HAL_GetTick
    stm32f7xx_hal_qspi.o(i.HAL_QSPI_MemoryMapped) refers to stm32f7xx_hal_qspi.o(i.QSPI_WaitFlagStateUntilTimeout) for QSPI_WaitFlagStateUntilTimeout
    stm32f7xx_hal_qspi.o(i.HAL_QSPI_MemoryMapped) refers to stm32f7xx_hal_qspi.o(i.QSPI_Config) for QSPI_Config
    stm32f7xx_hal_qspi.o(i.HAL_QSPI_Receive) refers to stm32f7xx_hal.o(i.HAL_GetTick) for HAL_GetTick
    stm32f7xx_hal_qspi.o(i.HAL_QSPI_Receive) refers to stm32f7xx_hal_qspi.o(i.QSPI_WaitFlagStateUntilTimeout) for QSPI_WaitFlagStateUntilTimeout
    stm32f7xx_hal_qspi.o(i.HAL_QSPI_Receive_DMA) refers to stm32f7xx_hal_dma.o(i.HAL_DMA_Start_IT) for HAL_DMA_Start_IT
    stm32f7xx_hal_qspi.o(i.HAL_QSPI_Receive_DMA) refers to stm32f7xx_hal_qspi.o(i.QSPI_DMARxCplt) for QSPI_DMARxCplt
    stm32f7xx_hal_qspi.o(i.HAL_QSPI_Receive_DMA) refers to stm32f7xx_hal_qspi.o(i.QSPI_DMARxHalfCplt) for QSPI_DMARxHalfCplt
    stm32f7xx_hal_qspi.o(i.HAL_QSPI_Receive_DMA) refers to stm32f7xx_hal_qspi.o(i.QSPI_DMAError) for QSPI_DMAError
    stm32f7xx_hal_qspi.o(i.HAL_QSPI_Transmit) refers to stm32f7xx_hal.o(i.HAL_GetTick) for HAL_GetTick
    stm32f7xx_hal_qspi.o(i.HAL_QSPI_Transmit) refers to stm32f7xx_hal_qspi.o(i.QSPI_WaitFlagStateUntilTimeout) for QSPI_WaitFlagStateUntilTimeout
    stm32f7xx_hal_qspi.o(i.HAL_QSPI_Transmit_DMA) refers to stm32f7xx_hal_dma.o(i.HAL_DMA_Start_IT) for HAL_DMA_Start_IT
    stm32f7xx_hal_qspi.o(i.HAL_QSPI_Transmit_DMA) refers to stm32f7xx_hal_qspi.o(i.QSPI_DMATxCplt) for QSPI_DMATxCplt
    stm32f7xx_hal_qspi.o(i.HAL_QSPI_Transmit_DMA) refers to stm32f7xx_hal_qspi.o(i.QSPI_DMATxHalfCplt) for QSPI_DMATxHalfCplt
    stm32f7xx_hal_qspi.o(i.HAL_QSPI_Transmit_DMA) refers to stm32f7xx_hal_qspi.o(i.QSPI_DMAError) for QSPI_DMAError
    stm32f7xx_hal_qspi.o(i.QSPI_DMAAbortCplt) refers to stm32f7xx_hal_qspi.o(i.HAL_QSPI_ErrorCallback) for HAL_QSPI_ErrorCallback
    stm32f7xx_hal_qspi.o(i.QSPI_DMAError) refers to stm32f7xx_hal_dma.o(i.HAL_DMA_GetError) for HAL_DMA_GetError
    stm32f7xx_hal_qspi.o(i.QSPI_DMAError) refers to stm32f7xx_hal_dma.o(i.HAL_DMA_Abort_IT) for HAL_DMA_Abort_IT
    stm32f7xx_hal_qspi.o(i.QSPI_DMAError) refers to stm32f7xx_hal_qspi.o(i.QSPI_DMAAbortCplt) for QSPI_DMAAbortCplt
    stm32f7xx_hal_qspi.o(i.QSPI_DMARxHalfCplt) refers to stm32f7xx_hal_qspi.o(i.HAL_QSPI_RxHalfCpltCallback) for HAL_QSPI_RxHalfCpltCallback
    stm32f7xx_hal_qspi.o(i.QSPI_DMATxHalfCplt) refers to stm32f7xx_hal_qspi.o(i.HAL_QSPI_TxHalfCpltCallback) for HAL_QSPI_TxHalfCpltCallback
    stm32f7xx_hal_qspi.o(i.QSPI_WaitFlagStateUntilTimeout) refers to stm32f7xx_hal.o(i.HAL_GetTick) for HAL_GetTick
    stm32f7xx_hal_i2c.o(i.HAL_I2C_DeInit) refers to stm32f7xx_hal_i2c.o(i.HAL_I2C_MspDeInit) for HAL_I2C_MspDeInit
    stm32f7xx_hal_i2c.o(i.HAL_I2C_DisableListen_IT) refers to stm32f7xx_hal_i2c.o(i.I2C_Disable_IRQ) for I2C_Disable_IRQ
    stm32f7xx_hal_i2c.o(i.HAL_I2C_ER_IRQHandler) refers to stm32f7xx_hal_i2c.o(i.I2C_ITError) for I2C_ITError
    stm32f7xx_hal_i2c.o(i.HAL_I2C_EnableListen_IT) refers to stm32f7xx_hal_i2c.o(i.I2C_Enable_IRQ) for I2C_Enable_IRQ
    stm32f7xx_hal_i2c.o(i.HAL_I2C_EnableListen_IT) refers to stm32f7xx_hal_i2c.o(i.I2C_Slave_ISR_IT) for I2C_Slave_ISR_IT
    stm32f7xx_hal_i2c.o(i.HAL_I2C_Init) refers to stm32f7xx_hal_i2c.o(i.HAL_I2C_MspInit) for HAL_I2C_MspInit
    stm32f7xx_hal_i2c.o(i.HAL_I2C_IsDeviceReady) refers to stm32f7xx_hal.o(i.HAL_GetTick) for HAL_GetTick
    stm32f7xx_hal_i2c.o(i.HAL_I2C_IsDeviceReady) refers to stm32f7xx_hal_i2c.o(i.I2C_WaitOnFlagUntilTimeout) for I2C_WaitOnFlagUntilTimeout
    stm32f7xx_hal_i2c.o(i.HAL_I2C_Master_Abort_IT) refers to stm32f7xx_hal_i2c.o(i.I2C_Disable_IRQ) for I2C_Disable_IRQ
    stm32f7xx_hal_i2c.o(i.HAL_I2C_Master_Abort_IT) refers to stm32f7xx_hal_i2c.o(i.I2C_Enable_IRQ) for I2C_Enable_IRQ
    stm32f7xx_hal_i2c.o(i.HAL_I2C_Master_Receive) refers to stm32f7xx_hal.o(i.HAL_GetTick) for HAL_GetTick
    stm32f7xx_hal_i2c.o(i.HAL_I2C_Master_Receive) refers to stm32f7xx_hal_i2c.o(i.I2C_WaitOnFlagUntilTimeout) for I2C_WaitOnFlagUntilTimeout
    stm32f7xx_hal_i2c.o(i.HAL_I2C_Master_Receive) refers to stm32f7xx_hal_i2c.o(i.I2C_WaitOnSTOPFlagUntilTimeout) for I2C_WaitOnSTOPFlagUntilTimeout
    stm32f7xx_hal_i2c.o(i.HAL_I2C_Master_Receive_DMA) refers to stm32f7xx_hal_dma.o(i.HAL_DMA_Start_IT) for HAL_DMA_Start_IT
    stm32f7xx_hal_i2c.o(i.HAL_I2C_Master_Receive_DMA) refers to stm32f7xx_hal_i2c.o(i.I2C_Enable_IRQ) for I2C_Enable_IRQ
    stm32f7xx_hal_i2c.o(i.HAL_I2C_Master_Receive_DMA) refers to stm32f7xx_hal_i2c.o(i.I2C_Master_ISR_DMA) for I2C_Master_ISR_DMA
    stm32f7xx_hal_i2c.o(i.HAL_I2C_Master_Receive_DMA) refers to stm32f7xx_hal_i2c.o(i.I2C_DMAMasterReceiveCplt) for I2C_DMAMasterReceiveCplt
    stm32f7xx_hal_i2c.o(i.HAL_I2C_Master_Receive_DMA) refers to stm32f7xx_hal_i2c.o(i.I2C_DMAError) for I2C_DMAError
    stm32f7xx_hal_i2c.o(i.HAL_I2C_Master_Receive_DMA) refers to stm32f7xx_hal_i2c.o(i.I2C_Master_ISR_IT) for I2C_Master_ISR_IT
    stm32f7xx_hal_i2c.o(i.HAL_I2C_Master_Receive_IT) refers to stm32f7xx_hal_i2c.o(i.I2C_Enable_IRQ) for I2C_Enable_IRQ
    stm32f7xx_hal_i2c.o(i.HAL_I2C_Master_Receive_IT) refers to stm32f7xx_hal_i2c.o(i.I2C_Master_ISR_IT) for I2C_Master_ISR_IT
    stm32f7xx_hal_i2c.o(i.HAL_I2C_Master_Sequential_Receive_IT) refers to stm32f7xx_hal_i2c.o(i.I2C_Enable_IRQ) for I2C_Enable_IRQ
    stm32f7xx_hal_i2c.o(i.HAL_I2C_Master_Sequential_Receive_IT) refers to stm32f7xx_hal_i2c.o(i.I2C_Master_ISR_IT) for I2C_Master_ISR_IT
    stm32f7xx_hal_i2c.o(i.HAL_I2C_Master_Sequential_Transmit_IT) refers to stm32f7xx_hal_i2c.o(i.I2C_Enable_IRQ) for I2C_Enable_IRQ
    stm32f7xx_hal_i2c.o(i.HAL_I2C_Master_Sequential_Transmit_IT) refers to stm32f7xx_hal_i2c.o(i.I2C_Master_ISR_IT) for I2C_Master_ISR_IT
    stm32f7xx_hal_i2c.o(i.HAL_I2C_Master_Transmit) refers to stm32f7xx_hal.o(i.HAL_GetTick) for HAL_GetTick
    stm32f7xx_hal_i2c.o(i.HAL_I2C_Master_Transmit) refers to stm32f7xx_hal_i2c.o(i.I2C_WaitOnFlagUntilTimeout) for I2C_WaitOnFlagUntilTimeout
    stm32f7xx_hal_i2c.o(i.HAL_I2C_Master_Transmit) refers to stm32f7xx_hal_i2c.o(i.I2C_WaitOnTXISFlagUntilTimeout) for I2C_WaitOnTXISFlagUntilTimeout
    stm32f7xx_hal_i2c.o(i.HAL_I2C_Master_Transmit) refers to stm32f7xx_hal_i2c.o(i.I2C_WaitOnSTOPFlagUntilTimeout) for I2C_WaitOnSTOPFlagUntilTimeout
    stm32f7xx_hal_i2c.o(i.HAL_I2C_Master_Transmit_DMA) refers to stm32f7xx_hal_dma.o(i.HAL_DMA_Start_IT) for HAL_DMA_Start_IT
    stm32f7xx_hal_i2c.o(i.HAL_I2C_Master_Transmit_DMA) refers to stm32f7xx_hal_i2c.o(i.I2C_Enable_IRQ) for I2C_Enable_IRQ
    stm32f7xx_hal_i2c.o(i.HAL_I2C_Master_Transmit_DMA) refers to stm32f7xx_hal_i2c.o(i.I2C_Master_ISR_DMA) for I2C_Master_ISR_DMA
    stm32f7xx_hal_i2c.o(i.HAL_I2C_Master_Transmit_DMA) refers to stm32f7xx_hal_i2c.o(i.I2C_DMAMasterTransmitCplt) for I2C_DMAMasterTransmitCplt
    stm32f7xx_hal_i2c.o(i.HAL_I2C_Master_Transmit_DMA) refers to stm32f7xx_hal_i2c.o(i.I2C_DMAError) for I2C_DMAError
    stm32f7xx_hal_i2c.o(i.HAL_I2C_Master_Transmit_DMA) refers to stm32f7xx_hal_i2c.o(i.I2C_Master_ISR_IT) for I2C_Master_ISR_IT
    stm32f7xx_hal_i2c.o(i.HAL_I2C_Master_Transmit_IT) refers to stm32f7xx_hal_i2c.o(i.I2C_Enable_IRQ) for I2C_Enable_IRQ
    stm32f7xx_hal_i2c.o(i.HAL_I2C_Master_Transmit_IT) refers to stm32f7xx_hal_i2c.o(i.I2C_Master_ISR_IT) for I2C_Master_ISR_IT
    stm32f7xx_hal_i2c.o(i.HAL_I2C_Mem_Read) refers to stm32f7xx_hal.o(i.HAL_GetTick) for HAL_GetTick
    stm32f7xx_hal_i2c.o(i.HAL_I2C_Mem_Read) refers to stm32f7xx_hal_i2c.o(i.I2C_WaitOnFlagUntilTimeout) for I2C_WaitOnFlagUntilTimeout
    stm32f7xx_hal_i2c.o(i.HAL_I2C_Mem_Read) refers to stm32f7xx_hal_i2c.o(i.I2C_RequestMemoryRead) for I2C_RequestMemoryRead
    stm32f7xx_hal_i2c.o(i.HAL_I2C_Mem_Read) refers to stm32f7xx_hal_i2c.o(i.I2C_WaitOnSTOPFlagUntilTimeout) for I2C_WaitOnSTOPFlagUntilTimeout
    stm32f7xx_hal_i2c.o(i.HAL_I2C_Mem_Read_DMA) refers to stm32f7xx_hal.o(i.HAL_GetTick) for HAL_GetTick
    stm32f7xx_hal_i2c.o(i.HAL_I2C_Mem_Read_DMA) refers to stm32f7xx_hal_i2c.o(i.I2C_RequestMemoryRead) for I2C_RequestMemoryRead
    stm32f7xx_hal_i2c.o(i.HAL_I2C_Mem_Read_DMA) refers to stm32f7xx_hal_dma.o(i.HAL_DMA_Start_IT) for HAL_DMA_Start_IT
    stm32f7xx_hal_i2c.o(i.HAL_I2C_Mem_Read_DMA) refers to stm32f7xx_hal_i2c.o(i.I2C_Enable_IRQ) for I2C_Enable_IRQ
    stm32f7xx_hal_i2c.o(i.HAL_I2C_Mem_Read_DMA) refers to stm32f7xx_hal_i2c.o(i.I2C_Master_ISR_DMA) for I2C_Master_ISR_DMA
    stm32f7xx_hal_i2c.o(i.HAL_I2C_Mem_Read_DMA) refers to stm32f7xx_hal_i2c.o(i.I2C_DMAMasterReceiveCplt) for I2C_DMAMasterReceiveCplt
    stm32f7xx_hal_i2c.o(i.HAL_I2C_Mem_Read_DMA) refers to stm32f7xx_hal_i2c.o(i.I2C_DMAError) for I2C_DMAError
    stm32f7xx_hal_i2c.o(i.HAL_I2C_Mem_Read_IT) refers to stm32f7xx_hal.o(i.HAL_GetTick) for HAL_GetTick
    stm32f7xx_hal_i2c.o(i.HAL_I2C_Mem_Read_IT) refers to stm32f7xx_hal_i2c.o(i.I2C_RequestMemoryRead) for I2C_RequestMemoryRead
    stm32f7xx_hal_i2c.o(i.HAL_I2C_Mem_Read_IT) refers to stm32f7xx_hal_i2c.o(i.I2C_Enable_IRQ) for I2C_Enable_IRQ
    stm32f7xx_hal_i2c.o(i.HAL_I2C_Mem_Read_IT) refers to stm32f7xx_hal_i2c.o(i.I2C_Master_ISR_IT) for I2C_Master_ISR_IT
    stm32f7xx_hal_i2c.o(i.HAL_I2C_Mem_Write) refers to stm32f7xx_hal.o(i.HAL_GetTick) for HAL_GetTick
    stm32f7xx_hal_i2c.o(i.HAL_I2C_Mem_Write) refers to stm32f7xx_hal_i2c.o(i.I2C_WaitOnFlagUntilTimeout) for I2C_WaitOnFlagUntilTimeout
    stm32f7xx_hal_i2c.o(i.HAL_I2C_Mem_Write) refers to stm32f7xx_hal_i2c.o(i.I2C_RequestMemoryWrite) for I2C_RequestMemoryWrite
    stm32f7xx_hal_i2c.o(i.HAL_I2C_Mem_Write) refers to stm32f7xx_hal_i2c.o(i.I2C_WaitOnTXISFlagUntilTimeout) for I2C_WaitOnTXISFlagUntilTimeout
    stm32f7xx_hal_i2c.o(i.HAL_I2C_Mem_Write) refers to stm32f7xx_hal_i2c.o(i.I2C_WaitOnSTOPFlagUntilTimeout) for I2C_WaitOnSTOPFlagUntilTimeout
    stm32f7xx_hal_i2c.o(i.HAL_I2C_Mem_Write_DMA) refers to stm32f7xx_hal.o(i.HAL_GetTick) for HAL_GetTick
    stm32f7xx_hal_i2c.o(i.HAL_I2C_Mem_Write_DMA) refers to stm32f7xx_hal_i2c.o(i.I2C_RequestMemoryWrite) for I2C_RequestMemoryWrite
    stm32f7xx_hal_i2c.o(i.HAL_I2C_Mem_Write_DMA) refers to stm32f7xx_hal_dma.o(i.HAL_DMA_Start_IT) for HAL_DMA_Start_IT
    stm32f7xx_hal_i2c.o(i.HAL_I2C_Mem_Write_DMA) refers to stm32f7xx_hal_i2c.o(i.I2C_Enable_IRQ) for I2C_Enable_IRQ
    stm32f7xx_hal_i2c.o(i.HAL_I2C_Mem_Write_DMA) refers to stm32f7xx_hal_i2c.o(i.I2C_Master_ISR_DMA) for I2C_Master_ISR_DMA
    stm32f7xx_hal_i2c.o(i.HAL_I2C_Mem_Write_DMA) refers to stm32f7xx_hal_i2c.o(i.I2C_DMAMasterTransmitCplt) for I2C_DMAMasterTransmitCplt
    stm32f7xx_hal_i2c.o(i.HAL_I2C_Mem_Write_DMA) refers to stm32f7xx_hal_i2c.o(i.I2C_DMAError) for I2C_DMAError
    stm32f7xx_hal_i2c.o(i.HAL_I2C_Mem_Write_IT) refers to stm32f7xx_hal.o(i.HAL_GetTick) for HAL_GetTick
    stm32f7xx_hal_i2c.o(i.HAL_I2C_Mem_Write_IT) refers to stm32f7xx_hal_i2c.o(i.I2C_RequestMemoryWrite) for I2C_RequestMemoryWrite
    stm32f7xx_hal_i2c.o(i.HAL_I2C_Mem_Write_IT) refers to stm32f7xx_hal_i2c.o(i.I2C_Enable_IRQ) for I2C_Enable_IRQ
    stm32f7xx_hal_i2c.o(i.HAL_I2C_Mem_Write_IT) refers to stm32f7xx_hal_i2c.o(i.I2C_Master_ISR_IT) for I2C_Master_ISR_IT
    stm32f7xx_hal_i2c.o(i.HAL_I2C_Slave_Receive) refers to stm32f7xx_hal.o(i.HAL_GetTick) for HAL_GetTick
    stm32f7xx_hal_i2c.o(i.HAL_I2C_Slave_Receive) refers to stm32f7xx_hal_i2c.o(i.I2C_WaitOnFlagUntilTimeout) for I2C_WaitOnFlagUntilTimeout
    stm32f7xx_hal_i2c.o(i.HAL_I2C_Slave_Receive) refers to stm32f7xx_hal_i2c.o(i.I2C_WaitOnSTOPFlagUntilTimeout) for I2C_WaitOnSTOPFlagUntilTimeout
    stm32f7xx_hal_i2c.o(i.HAL_I2C_Slave_Receive_DMA) refers to stm32f7xx_hal_dma.o(i.HAL_DMA_Start_IT) for HAL_DMA_Start_IT
    stm32f7xx_hal_i2c.o(i.HAL_I2C_Slave_Receive_DMA) refers to stm32f7xx_hal_i2c.o(i.I2C_Enable_IRQ) for I2C_Enable_IRQ
    stm32f7xx_hal_i2c.o(i.HAL_I2C_Slave_Receive_DMA) refers to stm32f7xx_hal_i2c.o(i.I2C_Slave_ISR_DMA) for I2C_Slave_ISR_DMA
    stm32f7xx_hal_i2c.o(i.HAL_I2C_Slave_Receive_DMA) refers to stm32f7xx_hal_i2c.o(i.I2C_DMASlaveReceiveCplt) for I2C_DMASlaveReceiveCplt
    stm32f7xx_hal_i2c.o(i.HAL_I2C_Slave_Receive_DMA) refers to stm32f7xx_hal_i2c.o(i.I2C_DMAError) for I2C_DMAError
    stm32f7xx_hal_i2c.o(i.HAL_I2C_Slave_Receive_IT) refers to stm32f7xx_hal_i2c.o(i.I2C_Enable_IRQ) for I2C_Enable_IRQ
    stm32f7xx_hal_i2c.o(i.HAL_I2C_Slave_Receive_IT) refers to stm32f7xx_hal_i2c.o(i.I2C_Slave_ISR_IT) for I2C_Slave_ISR_IT
    stm32f7xx_hal_i2c.o(i.HAL_I2C_Slave_Sequential_Receive_IT) refers to stm32f7xx_hal_i2c.o(i.I2C_Disable_IRQ) for I2C_Disable_IRQ
    stm32f7xx_hal_i2c.o(i.HAL_I2C_Slave_Sequential_Receive_IT) refers to stm32f7xx_hal_i2c.o(i.I2C_Enable_IRQ) for I2C_Enable_IRQ
    stm32f7xx_hal_i2c.o(i.HAL_I2C_Slave_Sequential_Receive_IT) refers to stm32f7xx_hal_i2c.o(i.I2C_Slave_ISR_IT) for I2C_Slave_ISR_IT
    stm32f7xx_hal_i2c.o(i.HAL_I2C_Slave_Sequential_Transmit_IT) refers to stm32f7xx_hal_i2c.o(i.I2C_Disable_IRQ) for I2C_Disable_IRQ
    stm32f7xx_hal_i2c.o(i.HAL_I2C_Slave_Sequential_Transmit_IT) refers to stm32f7xx_hal_i2c.o(i.I2C_Enable_IRQ) for I2C_Enable_IRQ
    stm32f7xx_hal_i2c.o(i.HAL_I2C_Slave_Sequential_Transmit_IT) refers to stm32f7xx_hal_i2c.o(i.I2C_Slave_ISR_IT) for I2C_Slave_ISR_IT
    stm32f7xx_hal_i2c.o(i.HAL_I2C_Slave_Transmit) refers to stm32f7xx_hal.o(i.HAL_GetTick) for HAL_GetTick
    stm32f7xx_hal_i2c.o(i.HAL_I2C_Slave_Transmit) refers to stm32f7xx_hal_i2c.o(i.I2C_WaitOnFlagUntilTimeout) for I2C_WaitOnFlagUntilTimeout
    stm32f7xx_hal_i2c.o(i.HAL_I2C_Slave_Transmit) refers to stm32f7xx_hal_i2c.o(i.I2C_WaitOnTXISFlagUntilTimeout) for I2C_WaitOnTXISFlagUntilTimeout
    stm32f7xx_hal_i2c.o(i.HAL_I2C_Slave_Transmit) refers to stm32f7xx_hal_i2c.o(i.I2C_WaitOnSTOPFlagUntilTimeout) for I2C_WaitOnSTOPFlagUntilTimeout
    stm32f7xx_hal_i2c.o(i.HAL_I2C_Slave_Transmit_DMA) refers to stm32f7xx_hal_dma.o(i.HAL_DMA_Start_IT) for HAL_DMA_Start_IT
    stm32f7xx_hal_i2c.o(i.HAL_I2C_Slave_Transmit_DMA) refers to stm32f7xx_hal_i2c.o(i.I2C_Enable_IRQ) for I2C_Enable_IRQ
    stm32f7xx_hal_i2c.o(i.HAL_I2C_Slave_Transmit_DMA) refers to stm32f7xx_hal_i2c.o(i.I2C_Slave_ISR_DMA) for I2C_Slave_ISR_DMA
    stm32f7xx_hal_i2c.o(i.HAL_I2C_Slave_Transmit_DMA) refers to stm32f7xx_hal_i2c.o(i.I2C_DMASlaveTransmitCplt) for I2C_DMASlaveTransmitCplt
    stm32f7xx_hal_i2c.o(i.HAL_I2C_Slave_Transmit_DMA) refers to stm32f7xx_hal_i2c.o(i.I2C_DMAError) for I2C_DMAError
    stm32f7xx_hal_i2c.o(i.HAL_I2C_Slave_Transmit_IT) refers to stm32f7xx_hal_i2c.o(i.I2C_Enable_IRQ) for I2C_Enable_IRQ
    stm32f7xx_hal_i2c.o(i.HAL_I2C_Slave_Transmit_IT) refers to stm32f7xx_hal_i2c.o(i.I2C_Slave_ISR_IT) for I2C_Slave_ISR_IT
    stm32f7xx_hal_i2c.o(i.I2C_DMAAbort) refers to stm32f7xx_hal_i2c.o(i.HAL_I2C_ErrorCallback) for HAL_I2C_ErrorCallback
    stm32f7xx_hal_i2c.o(i.I2C_DMAAbort) refers to stm32f7xx_hal_i2c.o(i.HAL_I2C_AbortCpltCallback) for HAL_I2C_AbortCpltCallback
    stm32f7xx_hal_i2c.o(i.I2C_DMAError) refers to stm32f7xx_hal_i2c.o(i.I2C_ITError) for I2C_ITError
    stm32f7xx_hal_i2c.o(i.I2C_DMAMasterReceiveCplt) refers to stm32f7xx_hal_dma.o(i.HAL_DMA_Start_IT) for HAL_DMA_Start_IT
    stm32f7xx_hal_i2c.o(i.I2C_DMAMasterReceiveCplt) refers to stm32f7xx_hal_i2c.o(i.I2C_Enable_IRQ) for I2C_Enable_IRQ
    stm32f7xx_hal_i2c.o(i.I2C_DMAMasterTransmitCplt) refers to stm32f7xx_hal_dma.o(i.HAL_DMA_Start_IT) for HAL_DMA_Start_IT
    stm32f7xx_hal_i2c.o(i.I2C_DMAMasterTransmitCplt) refers to stm32f7xx_hal_i2c.o(i.I2C_Enable_IRQ) for I2C_Enable_IRQ
    stm32f7xx_hal_i2c.o(i.I2C_Enable_IRQ) refers to stm32f7xx_hal_i2c.o(i.I2C_Master_ISR_DMA) for I2C_Master_ISR_DMA
    stm32f7xx_hal_i2c.o(i.I2C_Enable_IRQ) refers to stm32f7xx_hal_i2c.o(i.I2C_Slave_ISR_DMA) for I2C_Slave_ISR_DMA
    stm32f7xx_hal_i2c.o(i.I2C_ITError) refers to stm32f7xx_hal_i2c.o(i.I2C_Disable_IRQ) for I2C_Disable_IRQ
    stm32f7xx_hal_i2c.o(i.I2C_ITError) refers to stm32f7xx_hal_dma.o(i.HAL_DMA_Abort_IT) for HAL_DMA_Abort_IT
    stm32f7xx_hal_i2c.o(i.I2C_ITError) refers to stm32f7xx_hal_i2c.o(i.HAL_I2C_ErrorCallback) for HAL_I2C_ErrorCallback
    stm32f7xx_hal_i2c.o(i.I2C_ITError) refers to stm32f7xx_hal_i2c.o(i.HAL_I2C_AbortCpltCallback) for HAL_I2C_AbortCpltCallback
    stm32f7xx_hal_i2c.o(i.I2C_ITError) refers to stm32f7xx_hal_i2c.o(i.I2C_DMAAbort) for I2C_DMAAbort
    stm32f7xx_hal_i2c.o(i.I2C_ITError) refers to stm32f7xx_hal_i2c.o(i.I2C_Slave_ISR_IT) for I2C_Slave_ISR_IT
    stm32f7xx_hal_i2c.o(i.I2C_ITMasterCplt) refers to stm32f7xx_hal_i2c.o(i.I2C_Disable_IRQ) for I2C_Disable_IRQ
    stm32f7xx_hal_i2c.o(i.I2C_ITMasterCplt) refers to stm32f7xx_hal_i2c.o(i.HAL_I2C_MasterRxCpltCallback) for HAL_I2C_MasterRxCpltCallback
    stm32f7xx_hal_i2c.o(i.I2C_ITMasterCplt) refers to stm32f7xx_hal_i2c.o(i.I2C_ITError) for I2C_ITError
    stm32f7xx_hal_i2c.o(i.I2C_ITMasterCplt) refers to stm32f7xx_hal_i2c.o(i.HAL_I2C_MasterTxCpltCallback) for HAL_I2C_MasterTxCpltCallback
    stm32f7xx_hal_i2c.o(i.I2C_ITMasterCplt) refers to stm32f7xx_hal_i2c.o(i.HAL_I2C_MemTxCpltCallback) for HAL_I2C_MemTxCpltCallback
    stm32f7xx_hal_i2c.o(i.I2C_ITMasterCplt) refers to stm32f7xx_hal_i2c.o(i.HAL_I2C_MemRxCpltCallback) for HAL_I2C_MemRxCpltCallback
    stm32f7xx_hal_i2c.o(i.I2C_ITSlaveCplt) refers to stm32f7xx_hal_i2c.o(i.I2C_Disable_IRQ) for I2C_Disable_IRQ
    stm32f7xx_hal_i2c.o(i.I2C_ITSlaveCplt) refers to stm32f7xx_hal_i2c.o(i.I2C_ITError) for I2C_ITError
    stm32f7xx_hal_i2c.o(i.I2C_ITSlaveCplt) refers to stm32f7xx_hal_i2c.o(i.HAL_I2C_ListenCpltCallback) for HAL_I2C_ListenCpltCallback
    stm32f7xx_hal_i2c.o(i.I2C_ITSlaveCplt) refers to stm32f7xx_hal_i2c.o(i.HAL_I2C_SlaveTxCpltCallback) for HAL_I2C_SlaveTxCpltCallback
    stm32f7xx_hal_i2c.o(i.I2C_ITSlaveCplt) refers to stm32f7xx_hal_i2c.o(i.HAL_I2C_SlaveRxCpltCallback) for HAL_I2C_SlaveRxCpltCallback
    stm32f7xx_hal_i2c.o(i.I2C_Master_ISR_DMA) refers to stm32f7xx_hal_i2c.o(i.I2C_Enable_IRQ) for I2C_Enable_IRQ
    stm32f7xx_hal_i2c.o(i.I2C_Master_ISR_DMA) refers to stm32f7xx_hal_i2c.o(i.I2C_ITError) for I2C_ITError
    stm32f7xx_hal_i2c.o(i.I2C_Master_ISR_DMA) refers to stm32f7xx_hal_i2c.o(i.I2C_ITMasterCplt) for I2C_ITMasterCplt
    stm32f7xx_hal_i2c.o(i.I2C_Master_ISR_IT) refers to stm32f7xx_hal_i2c.o(i.I2C_ITError) for I2C_ITError
    stm32f7xx_hal_i2c.o(i.I2C_Master_ISR_IT) refers to stm32f7xx_hal_i2c.o(i.I2C_ITMasterCplt) for I2C_ITMasterCplt
    stm32f7xx_hal_i2c.o(i.I2C_Master_ISR_IT) refers to stm32f7xx_hal_i2c.o(i.I2C_Disable_IRQ) for I2C_Disable_IRQ
    stm32f7xx_hal_i2c.o(i.I2C_Master_ISR_IT) refers to stm32f7xx_hal_i2c.o(i.HAL_I2C_MasterRxCpltCallback) for HAL_I2C_MasterRxCpltCallback
    stm32f7xx_hal_i2c.o(i.I2C_Master_ISR_IT) refers to stm32f7xx_hal_i2c.o(i.HAL_I2C_MasterTxCpltCallback) for HAL_I2C_MasterTxCpltCallback
    stm32f7xx_hal_i2c.o(i.I2C_RequestMemoryRead) refers to stm32f7xx_hal_i2c.o(i.I2C_WaitOnTXISFlagUntilTimeout) for I2C_WaitOnTXISFlagUntilTimeout
    stm32f7xx_hal_i2c.o(i.I2C_RequestMemoryRead) refers to stm32f7xx_hal_i2c.o(i.I2C_WaitOnFlagUntilTimeout) for I2C_WaitOnFlagUntilTimeout
    stm32f7xx_hal_i2c.o(i.I2C_RequestMemoryWrite) refers to stm32f7xx_hal_i2c.o(i.I2C_WaitOnTXISFlagUntilTimeout) for I2C_WaitOnTXISFlagUntilTimeout
    stm32f7xx_hal_i2c.o(i.I2C_RequestMemoryWrite) refers to stm32f7xx_hal_i2c.o(i.I2C_WaitOnFlagUntilTimeout) for I2C_WaitOnFlagUntilTimeout
    stm32f7xx_hal_i2c.o(i.I2C_Slave_ISR_DMA) refers to stm32f7xx_hal_i2c.o(i.I2C_ITSlaveCplt) for I2C_ITSlaveCplt
    stm32f7xx_hal_i2c.o(i.I2C_Slave_ISR_IT) refers to stm32f7xx_hal_i2c.o(i.I2C_Disable_IRQ) for I2C_Disable_IRQ
    stm32f7xx_hal_i2c.o(i.I2C_Slave_ISR_IT) refers to stm32f7xx_hal_i2c.o(i.HAL_I2C_ListenCpltCallback) for HAL_I2C_ListenCpltCallback
    stm32f7xx_hal_i2c.o(i.I2C_Slave_ISR_IT) refers to stm32f7xx_hal_i2c.o(i.HAL_I2C_AddrCallback) for HAL_I2C_AddrCallback
    stm32f7xx_hal_i2c.o(i.I2C_Slave_ISR_IT) refers to stm32f7xx_hal_i2c.o(i.HAL_I2C_SlaveTxCpltCallback) for HAL_I2C_SlaveTxCpltCallback
    stm32f7xx_hal_i2c.o(i.I2C_Slave_ISR_IT) refers to stm32f7xx_hal_i2c.o(i.HAL_I2C_SlaveRxCpltCallback) for HAL_I2C_SlaveRxCpltCallback
    stm32f7xx_hal_i2c.o(i.I2C_Slave_ISR_IT) refers to stm32f7xx_hal_i2c.o(i.I2C_ITSlaveCplt) for I2C_ITSlaveCplt
    stm32f7xx_hal_i2c.o(i.I2C_WaitOnFlagUntilTimeout) refers to stm32f7xx_hal.o(i.HAL_GetTick) for HAL_GetTick
    stm32f7xx_hal_i2c.o(i.I2C_WaitOnSTOPFlagUntilTimeout) refers to stm32f7xx_hal.o(i.HAL_GetTick) for HAL_GetTick
    stm32f7xx_hal_i2c.o(i.I2C_WaitOnTXISFlagUntilTimeout) refers to stm32f7xx_hal.o(i.HAL_GetTick) for HAL_GetTick
    stm32f7xx_hal_uart.o(i.HAL_HalfDuplex_Init) refers to usart.o(i.HAL_UART_MspInit) for HAL_UART_MspInit
    stm32f7xx_hal_uart.o(i.HAL_HalfDuplex_Init) refers to stm32f7xx_hal_uart.o(i.UART_SetConfig) for UART_SetConfig
    stm32f7xx_hal_uart.o(i.HAL_HalfDuplex_Init) refers to stm32f7xx_hal_uart.o(i.UART_AdvFeatureConfig) for UART_AdvFeatureConfig
    stm32f7xx_hal_uart.o(i.HAL_HalfDuplex_Init) refers to stm32f7xx_hal_uart.o(i.UART_CheckIdleState) for UART_CheckIdleState
    stm32f7xx_hal_uart.o(i.HAL_LIN_Init) refers to usart.o(i.HAL_UART_MspInit) for HAL_UART_MspInit
    stm32f7xx_hal_uart.o(i.HAL_LIN_Init) refers to stm32f7xx_hal_uart.o(i.UART_SetConfig) for UART_SetConfig
    stm32f7xx_hal_uart.o(i.HAL_LIN_Init) refers to stm32f7xx_hal_uart.o(i.UART_AdvFeatureConfig) for UART_AdvFeatureConfig
    stm32f7xx_hal_uart.o(i.HAL_LIN_Init) refers to stm32f7xx_hal_uart.o(i.UART_CheckIdleState) for UART_CheckIdleState
    stm32f7xx_hal_uart.o(i.HAL_MultiProcessorEx_AddressLength_Set) refers to stm32f7xx_hal_uart.o(i.UART_CheckIdleState) for UART_CheckIdleState
    stm32f7xx_hal_uart.o(i.HAL_MultiProcessor_DisableMuteMode) refers to stm32f7xx_hal_uart.o(i.UART_CheckIdleState) for UART_CheckIdleState
    stm32f7xx_hal_uart.o(i.HAL_MultiProcessor_EnableMuteMode) refers to stm32f7xx_hal_uart.o(i.UART_CheckIdleState) for UART_CheckIdleState
    stm32f7xx_hal_uart.o(i.HAL_MultiProcessor_Init) refers to usart.o(i.HAL_UART_MspInit) for HAL_UART_MspInit
    stm32f7xx_hal_uart.o(i.HAL_MultiProcessor_Init) refers to stm32f7xx_hal_uart.o(i.UART_SetConfig) for UART_SetConfig
    stm32f7xx_hal_uart.o(i.HAL_MultiProcessor_Init) refers to stm32f7xx_hal_uart.o(i.UART_AdvFeatureConfig) for UART_AdvFeatureConfig
    stm32f7xx_hal_uart.o(i.HAL_MultiProcessor_Init) refers to stm32f7xx_hal_uart.o(i.UART_CheckIdleState) for UART_CheckIdleState
    stm32f7xx_hal_uart.o(i.HAL_RS485Ex_Init) refers to usart.o(i.HAL_UART_MspInit) for HAL_UART_MspInit
    stm32f7xx_hal_uart.o(i.HAL_RS485Ex_Init) refers to stm32f7xx_hal_uart.o(i.UART_SetConfig) for UART_SetConfig
    stm32f7xx_hal_uart.o(i.HAL_RS485Ex_Init) refers to stm32f7xx_hal_uart.o(i.UART_AdvFeatureConfig) for UART_AdvFeatureConfig
    stm32f7xx_hal_uart.o(i.HAL_RS485Ex_Init) refers to stm32f7xx_hal_uart.o(i.UART_CheckIdleState) for UART_CheckIdleState
    stm32f7xx_hal_uart.o(i.HAL_UART_DMAStop) refers to stm32f7xx_hal_dma.o(i.HAL_DMA_Abort) for HAL_DMA_Abort
    stm32f7xx_hal_uart.o(i.HAL_UART_DeInit) refers to usart.o(i.HAL_UART_MspDeInit) for HAL_UART_MspDeInit
    stm32f7xx_hal_uart.o(i.HAL_UART_IRQHandler) refers to uart_masterslave.o(i.HAL_UART_RxCpltCallback) for HAL_UART_RxCpltCallback
    stm32f7xx_hal_uart.o(i.HAL_UART_IRQHandler) refers to stm32f7xx_hal_dma.o(i.HAL_DMA_Abort_IT) for HAL_DMA_Abort_IT
    stm32f7xx_hal_uart.o(i.HAL_UART_IRQHandler) refers to stm32f7xx_hal_uart.o(i.HAL_UART_ErrorCallback) for HAL_UART_ErrorCallback
    stm32f7xx_hal_uart.o(i.HAL_UART_IRQHandler) refers to uart_masterslave.o(i.HAL_UART_TxCpltCallback) for HAL_UART_TxCpltCallback
    stm32f7xx_hal_uart.o(i.HAL_UART_IRQHandler) refers to stm32f7xx_hal_uart.o(i.UART_DMAAbortOnError) for UART_DMAAbortOnError
    stm32f7xx_hal_uart.o(i.HAL_UART_Init) refers to usart.o(i.HAL_UART_MspInit) for HAL_UART_MspInit
    stm32f7xx_hal_uart.o(i.HAL_UART_Init) refers to stm32f7xx_hal_uart.o(i.UART_SetConfig) for UART_SetConfig
    stm32f7xx_hal_uart.o(i.HAL_UART_Init) refers to stm32f7xx_hal_uart.o(i.UART_AdvFeatureConfig) for UART_AdvFeatureConfig
    stm32f7xx_hal_uart.o(i.HAL_UART_Init) refers to stm32f7xx_hal_uart.o(i.UART_CheckIdleState) for UART_CheckIdleState
    stm32f7xx_hal_uart.o(i.HAL_UART_Receive) refers to stm32f7xx_hal.o(i.HAL_GetTick) for HAL_GetTick
    stm32f7xx_hal_uart.o(i.HAL_UART_Receive_DMA) refers to stm32f7xx_hal_dma.o(i.HAL_DMA_Start_IT) for HAL_DMA_Start_IT
    stm32f7xx_hal_uart.o(i.HAL_UART_Receive_DMA) refers to stm32f7xx_hal_uart.o(i.UART_DMAReceiveCplt) for UART_DMAReceiveCplt
    stm32f7xx_hal_uart.o(i.HAL_UART_Receive_DMA) refers to stm32f7xx_hal_uart.o(i.UART_DMARxHalfCplt) for UART_DMARxHalfCplt
    stm32f7xx_hal_uart.o(i.HAL_UART_Receive_DMA) refers to stm32f7xx_hal_uart.o(i.UART_DMAError) for UART_DMAError
    stm32f7xx_hal_uart.o(i.HAL_UART_Transmit) refers to stm32f7xx_hal.o(i.HAL_GetTick) for HAL_GetTick
    stm32f7xx_hal_uart.o(i.HAL_UART_Transmit) refers to stm32f7xx_hal_uart.o(i.UART_WaitOnFlagUntilTimeout) for UART_WaitOnFlagUntilTimeout
    stm32f7xx_hal_uart.o(i.HAL_UART_Transmit_DMA) refers to stm32f7xx_hal_dma.o(i.HAL_DMA_Start_IT) for HAL_DMA_Start_IT
    stm32f7xx_hal_uart.o(i.HAL_UART_Transmit_DMA) refers to stm32f7xx_hal_uart.o(i.UART_DMATransmitCplt) for UART_DMATransmitCplt
    stm32f7xx_hal_uart.o(i.HAL_UART_Transmit_DMA) refers to stm32f7xx_hal_uart.o(i.UART_DMATxHalfCplt) for UART_DMATxHalfCplt
    stm32f7xx_hal_uart.o(i.HAL_UART_Transmit_DMA) refers to stm32f7xx_hal_uart.o(i.UART_DMAError) for UART_DMAError
    stm32f7xx_hal_uart.o(i.UART_CheckIdleState) refers to stm32f7xx_hal.o(i.HAL_GetTick) for HAL_GetTick
    stm32f7xx_hal_uart.o(i.UART_CheckIdleState) refers to stm32f7xx_hal_uart.o(i.UART_WaitOnFlagUntilTimeout) for UART_WaitOnFlagUntilTimeout
    stm32f7xx_hal_uart.o(i.UART_DMAAbortOnError) refers to stm32f7xx_hal_uart.o(i.HAL_UART_ErrorCallback) for HAL_UART_ErrorCallback
    stm32f7xx_hal_uart.o(i.UART_DMAError) refers to stm32f7xx_hal_uart.o(i.HAL_UART_ErrorCallback) for HAL_UART_ErrorCallback
    stm32f7xx_hal_uart.o(i.UART_DMAReceiveCplt) refers to uart_masterslave.o(i.HAL_UART_RxCpltCallback) for HAL_UART_RxCpltCallback
    stm32f7xx_hal_uart.o(i.UART_DMARxHalfCplt) refers to stm32f7xx_hal_uart.o(i.HAL_UART_RxHalfCpltCallback) for HAL_UART_RxHalfCpltCallback
    stm32f7xx_hal_uart.o(i.UART_DMATransmitCplt) refers to uart_masterslave.o(i.HAL_UART_TxCpltCallback) for HAL_UART_TxCpltCallback
    stm32f7xx_hal_uart.o(i.UART_DMATxHalfCplt) refers to stm32f7xx_hal_uart.o(i.HAL_UART_TxHalfCpltCallback) for HAL_UART_TxHalfCpltCallback
    stm32f7xx_hal_uart.o(i.UART_SetConfig) refers to stm32f7xx_hal_rcc.o(i.HAL_RCC_GetPCLK1Freq) for HAL_RCC_GetPCLK1Freq
    stm32f7xx_hal_uart.o(i.UART_SetConfig) refers to stm32f7xx_hal_rcc.o(i.HAL_RCC_GetPCLK2Freq) for HAL_RCC_GetPCLK2Freq
    stm32f7xx_hal_uart.o(i.UART_SetConfig) refers to stm32f7xx_hal_rcc.o(i.HAL_RCC_GetSysClockFreq) for HAL_RCC_GetSysClockFreq
    stm32f7xx_hal_uart.o(i.UART_WaitOnFlagUntilTimeout) refers to stm32f7xx_hal.o(i.HAL_GetTick) for HAL_GetTick
    stm32f7xx_hal_spi.o(i.HAL_SPI_Abort) refers to stm32f7xx_hal.o(i.HAL_GetTick) for HAL_GetTick
    stm32f7xx_hal_spi.o(i.HAL_SPI_Abort) refers to stm32f7xx_hal_dma.o(i.HAL_DMA_Abort) for HAL_DMA_Abort
    stm32f7xx_hal_spi.o(i.HAL_SPI_Abort) refers to stm32f7xx_hal_spi.o(i.SPI_EndRxTxTransaction) for SPI_EndRxTxTransaction
    stm32f7xx_hal_spi.o(i.HAL_SPI_Abort) refers to stm32f7xx_hal_spi.o(i.SPI_WaitFifoStateUntilTimeout) for SPI_WaitFifoStateUntilTimeout
    stm32f7xx_hal_spi.o(i.HAL_SPI_Abort) refers to stm32f7xx_hal_spi.o(i.SPI_WaitFlagStateUntilTimeout) for SPI_WaitFlagStateUntilTimeout
    stm32f7xx_hal_spi.o(i.HAL_SPI_Abort) refers to stm32f7xx_hal_spi.o(i.SPI_AbortTx_ISR) for SPI_AbortTx_ISR
    stm32f7xx_hal_spi.o(i.HAL_SPI_Abort) refers to stm32f7xx_hal_spi.o(i.SPI_AbortRx_ISR) for SPI_AbortRx_ISR
    stm32f7xx_hal_spi.o(i.HAL_SPI_Abort_IT) refers to stm32f7xx_hal.o(i.HAL_GetTick) for HAL_GetTick
    stm32f7xx_hal_spi.o(i.HAL_SPI_Abort_IT) refers to stm32f7xx_hal_dma.o(i.HAL_DMA_Abort_IT) for HAL_DMA_Abort_IT
    stm32f7xx_hal_spi.o(i.HAL_SPI_Abort_IT) refers to stm32f7xx_hal_spi.o(i.HAL_SPI_AbortCpltCallback) for HAL_SPI_AbortCpltCallback
    stm32f7xx_hal_spi.o(i.HAL_SPI_Abort_IT) refers to stm32f7xx_hal_spi.o(i.SPI_AbortTx_ISR) for SPI_AbortTx_ISR
    stm32f7xx_hal_spi.o(i.HAL_SPI_Abort_IT) refers to stm32f7xx_hal_spi.o(i.SPI_AbortRx_ISR) for SPI_AbortRx_ISR
    stm32f7xx_hal_spi.o(i.HAL_SPI_Abort_IT) refers to stm32f7xx_hal_spi.o(i.SPI_DMATxAbortCallback) for SPI_DMATxAbortCallback
    stm32f7xx_hal_spi.o(i.HAL_SPI_Abort_IT) refers to stm32f7xx_hal_spi.o(i.SPI_DMARxAbortCallback) for SPI_DMARxAbortCallback
    stm32f7xx_hal_spi.o(i.HAL_SPI_DMAStop) refers to stm32f7xx_hal_dma.o(i.HAL_DMA_Abort) for HAL_DMA_Abort
    stm32f7xx_hal_spi.o(i.HAL_SPI_DeInit) refers to spi.o(i.HAL_SPI_MspDeInit) for HAL_SPI_MspDeInit
    stm32f7xx_hal_spi.o(i.HAL_SPI_IRQHandler) refers to stm32f7xx_hal_dma.o(i.HAL_DMA_Abort_IT) for HAL_DMA_Abort_IT
    stm32f7xx_hal_spi.o(i.HAL_SPI_IRQHandler) refers to stm32f7xx_hal_spi.o(i.HAL_SPI_ErrorCallback) for HAL_SPI_ErrorCallback
    stm32f7xx_hal_spi.o(i.HAL_SPI_IRQHandler) refers to stm32f7xx_hal_spi.o(i.SPI_DMAAbortOnError) for SPI_DMAAbortOnError
    stm32f7xx_hal_spi.o(i.HAL_SPI_Init) refers to spi.o(i.HAL_SPI_MspInit) for HAL_SPI_MspInit
    stm32f7xx_hal_spi.o(i.HAL_SPI_Receive) refers to stm32f7xx_hal.o(i.HAL_GetTick) for HAL_GetTick
    stm32f7xx_hal_spi.o(i.HAL_SPI_Receive) refers to stm32f7xx_hal_spi.o(i.HAL_SPI_TransmitReceive) for HAL_SPI_TransmitReceive
    stm32f7xx_hal_spi.o(i.HAL_SPI_Receive) refers to stm32f7xx_hal_spi.o(i.SPI_WaitFlagStateUntilTimeout) for SPI_WaitFlagStateUntilTimeout
    stm32f7xx_hal_spi.o(i.HAL_SPI_Receive) refers to stm32f7xx_hal_spi.o(i.SPI_WaitFifoStateUntilTimeout) for SPI_WaitFifoStateUntilTimeout
    stm32f7xx_hal_spi.o(i.HAL_SPI_Receive_DMA) refers to stm32f7xx_hal_spi.o(i.HAL_SPI_TransmitReceive_DMA) for HAL_SPI_TransmitReceive_DMA
    stm32f7xx_hal_spi.o(i.HAL_SPI_Receive_DMA) refers to stm32f7xx_hal_dma.o(i.HAL_DMA_Start_IT) for HAL_DMA_Start_IT
    stm32f7xx_hal_spi.o(i.HAL_SPI_Receive_DMA) refers to stm32f7xx_hal_spi.o(i.SPI_DMAHalfReceiveCplt) for SPI_DMAHalfReceiveCplt
    stm32f7xx_hal_spi.o(i.HAL_SPI_Receive_DMA) refers to stm32f7xx_hal_spi.o(i.SPI_DMAReceiveCplt) for SPI_DMAReceiveCplt
    stm32f7xx_hal_spi.o(i.HAL_SPI_Receive_DMA) refers to stm32f7xx_hal_spi.o(i.SPI_DMAError) for SPI_DMAError
    stm32f7xx_hal_spi.o(i.HAL_SPI_Receive_IT) refers to stm32f7xx_hal_spi.o(i.HAL_SPI_TransmitReceive_IT) for HAL_SPI_TransmitReceive_IT
    stm32f7xx_hal_spi.o(i.HAL_SPI_Receive_IT) refers to stm32f7xx_hal_spi.o(i.SPI_RxISR_16BIT) for SPI_RxISR_16BIT
    stm32f7xx_hal_spi.o(i.HAL_SPI_Receive_IT) refers to stm32f7xx_hal_spi.o(i.SPI_RxISR_8BIT) for SPI_RxISR_8BIT
    stm32f7xx_hal_spi.o(i.HAL_SPI_Transmit) refers to stm32f7xx_hal.o(i.HAL_GetTick) for HAL_GetTick
    stm32f7xx_hal_spi.o(i.HAL_SPI_Transmit) refers to stm32f7xx_hal_spi.o(i.SPI_EndRxTxTransaction) for SPI_EndRxTxTransaction
    stm32f7xx_hal_spi.o(i.HAL_SPI_TransmitReceive) refers to stm32f7xx_hal.o(i.HAL_GetTick) for HAL_GetTick
    stm32f7xx_hal_spi.o(i.HAL_SPI_TransmitReceive) refers to stm32f7xx_hal_spi.o(i.SPI_EndRxTxTransaction) for SPI_EndRxTxTransaction
    stm32f7xx_hal_spi.o(i.HAL_SPI_TransmitReceive_DMA) refers to stm32f7xx_hal_dma.o(i.HAL_DMA_Start_IT) for HAL_DMA_Start_IT
    stm32f7xx_hal_spi.o(i.HAL_SPI_TransmitReceive_DMA) refers to stm32f7xx_hal_spi.o(i.SPI_DMAHalfReceiveCplt) for SPI_DMAHalfReceiveCplt
    stm32f7xx_hal_spi.o(i.HAL_SPI_TransmitReceive_DMA) refers to stm32f7xx_hal_spi.o(i.SPI_DMAHalfTransmitReceiveCplt) for SPI_DMAHalfTransmitReceiveCplt
    stm32f7xx_hal_spi.o(i.HAL_SPI_TransmitReceive_DMA) refers to stm32f7xx_hal_spi.o(i.SPI_DMAReceiveCplt) for SPI_DMAReceiveCplt
    stm32f7xx_hal_spi.o(i.HAL_SPI_TransmitReceive_DMA) refers to stm32f7xx_hal_spi.o(i.SPI_DMATransmitReceiveCplt) for SPI_DMATransmitReceiveCplt
    stm32f7xx_hal_spi.o(i.HAL_SPI_TransmitReceive_DMA) refers to stm32f7xx_hal_spi.o(i.SPI_DMAError) for SPI_DMAError
    stm32f7xx_hal_spi.o(i.HAL_SPI_TransmitReceive_IT) refers to stm32f7xx_hal_spi.o(i.SPI_2linesRxISR_16BIT) for SPI_2linesRxISR_16BIT
    stm32f7xx_hal_spi.o(i.HAL_SPI_TransmitReceive_IT) refers to stm32f7xx_hal_spi.o(i.SPI_2linesTxISR_16BIT) for SPI_2linesTxISR_16BIT
    stm32f7xx_hal_spi.o(i.HAL_SPI_TransmitReceive_IT) refers to stm32f7xx_hal_spi.o(i.SPI_2linesRxISR_8BIT) for SPI_2linesRxISR_8BIT
    stm32f7xx_hal_spi.o(i.HAL_SPI_TransmitReceive_IT) refers to stm32f7xx_hal_spi.o(i.SPI_2linesTxISR_8BIT) for SPI_2linesTxISR_8BIT
    stm32f7xx_hal_spi.o(i.HAL_SPI_Transmit_DMA) refers to stm32f7xx_hal_dma.o(i.HAL_DMA_Start_IT) for HAL_DMA_Start_IT
    stm32f7xx_hal_spi.o(i.HAL_SPI_Transmit_DMA) refers to stm32f7xx_hal_spi.o(i.SPI_DMAHalfTransmitCplt) for SPI_DMAHalfTransmitCplt
    stm32f7xx_hal_spi.o(i.HAL_SPI_Transmit_DMA) refers to stm32f7xx_hal_spi.o(i.SPI_DMATransmitCplt) for SPI_DMATransmitCplt
    stm32f7xx_hal_spi.o(i.HAL_SPI_Transmit_DMA) refers to stm32f7xx_hal_spi.o(i.SPI_DMAError) for SPI_DMAError
    stm32f7xx_hal_spi.o(i.HAL_SPI_Transmit_IT) refers to stm32f7xx_hal_spi.o(i.SPI_TxISR_16BIT) for SPI_TxISR_16BIT
    stm32f7xx_hal_spi.o(i.HAL_SPI_Transmit_IT) refers to stm32f7xx_hal_spi.o(i.SPI_TxISR_8BIT) for SPI_TxISR_8BIT
    stm32f7xx_hal_spi.o(i.SPI_2linesRxISR_16BIT) refers to stm32f7xx_hal.o(i.HAL_GetTick) for HAL_GetTick
    stm32f7xx_hal_spi.o(i.SPI_2linesRxISR_16BIT) refers to stm32f7xx_hal_spi.o(i.SPI_EndRxTxTransaction) for SPI_EndRxTxTransaction
    stm32f7xx_hal_spi.o(i.SPI_2linesRxISR_16BIT) refers to stm32f7xx_hal_spi.o(i.HAL_SPI_ErrorCallback) for HAL_SPI_ErrorCallback
    stm32f7xx_hal_spi.o(i.SPI_2linesRxISR_16BIT) refers to stm32f7xx_hal_spi.o(i.HAL_SPI_TxRxCpltCallback) for HAL_SPI_TxRxCpltCallback
    stm32f7xx_hal_spi.o(i.SPI_2linesRxISR_16BIT) refers to spi_masterslave.o(i.HAL_SPI_RxCpltCallback) for HAL_SPI_RxCpltCallback
    stm32f7xx_hal_spi.o(i.SPI_2linesRxISR_8BIT) refers to stm32f7xx_hal.o(i.HAL_GetTick) for HAL_GetTick
    stm32f7xx_hal_spi.o(i.SPI_2linesRxISR_8BIT) refers to stm32f7xx_hal_spi.o(i.SPI_EndRxTxTransaction) for SPI_EndRxTxTransaction
    stm32f7xx_hal_spi.o(i.SPI_2linesRxISR_8BIT) refers to stm32f7xx_hal_spi.o(i.HAL_SPI_ErrorCallback) for HAL_SPI_ErrorCallback
    stm32f7xx_hal_spi.o(i.SPI_2linesRxISR_8BIT) refers to stm32f7xx_hal_spi.o(i.HAL_SPI_TxRxCpltCallback) for HAL_SPI_TxRxCpltCallback
    stm32f7xx_hal_spi.o(i.SPI_2linesRxISR_8BIT) refers to spi_masterslave.o(i.HAL_SPI_RxCpltCallback) for HAL_SPI_RxCpltCallback
    stm32f7xx_hal_spi.o(i.SPI_2linesTxISR_16BIT) refers to stm32f7xx_hal.o(i.HAL_GetTick) for HAL_GetTick
    stm32f7xx_hal_spi.o(i.SPI_2linesTxISR_16BIT) refers to stm32f7xx_hal_spi.o(i.SPI_EndRxTxTransaction) for SPI_EndRxTxTransaction
    stm32f7xx_hal_spi.o(i.SPI_2linesTxISR_16BIT) refers to stm32f7xx_hal_spi.o(i.HAL_SPI_ErrorCallback) for HAL_SPI_ErrorCallback
    stm32f7xx_hal_spi.o(i.SPI_2linesTxISR_16BIT) refers to stm32f7xx_hal_spi.o(i.HAL_SPI_TxRxCpltCallback) for HAL_SPI_TxRxCpltCallback
    stm32f7xx_hal_spi.o(i.SPI_2linesTxISR_16BIT) refers to spi_masterslave.o(i.HAL_SPI_RxCpltCallback) for HAL_SPI_RxCpltCallback
    stm32f7xx_hal_spi.o(i.SPI_2linesTxISR_8BIT) refers to stm32f7xx_hal.o(i.HAL_GetTick) for HAL_GetTick
    stm32f7xx_hal_spi.o(i.SPI_2linesTxISR_8BIT) refers to stm32f7xx_hal_spi.o(i.SPI_EndRxTxTransaction) for SPI_EndRxTxTransaction
    stm32f7xx_hal_spi.o(i.SPI_2linesTxISR_8BIT) refers to stm32f7xx_hal_spi.o(i.HAL_SPI_ErrorCallback) for HAL_SPI_ErrorCallback
    stm32f7xx_hal_spi.o(i.SPI_2linesTxISR_8BIT) refers to stm32f7xx_hal_spi.o(i.HAL_SPI_TxRxCpltCallback) for HAL_SPI_TxRxCpltCallback
    stm32f7xx_hal_spi.o(i.SPI_2linesTxISR_8BIT) refers to spi_masterslave.o(i.HAL_SPI_RxCpltCallback) for HAL_SPI_RxCpltCallback
    stm32f7xx_hal_spi.o(i.SPI_AbortRx_ISR) refers to stm32f7xx_hal.o(i.HAL_GetTick) for HAL_GetTick
    stm32f7xx_hal_spi.o(i.SPI_AbortRx_ISR) refers to stm32f7xx_hal_spi.o(i.SPI_WaitFlagStateUntilTimeout) for SPI_WaitFlagStateUntilTimeout
    stm32f7xx_hal_spi.o(i.SPI_AbortRx_ISR) refers to stm32f7xx_hal_spi.o(i.SPI_WaitFifoStateUntilTimeout) for SPI_WaitFifoStateUntilTimeout
    stm32f7xx_hal_spi.o(i.SPI_AbortTx_ISR) refers to stm32f7xx_hal.o(i.HAL_GetTick) for HAL_GetTick
    stm32f7xx_hal_spi.o(i.SPI_AbortTx_ISR) refers to stm32f7xx_hal_spi.o(i.SPI_EndRxTxTransaction) for SPI_EndRxTxTransaction
    stm32f7xx_hal_spi.o(i.SPI_AbortTx_ISR) refers to stm32f7xx_hal_spi.o(i.SPI_WaitFifoStateUntilTimeout) for SPI_WaitFifoStateUntilTimeout
    stm32f7xx_hal_spi.o(i.SPI_DMAAbortOnError) refers to stm32f7xx_hal_spi.o(i.HAL_SPI_ErrorCallback) for HAL_SPI_ErrorCallback
    stm32f7xx_hal_spi.o(i.SPI_DMAError) refers to stm32f7xx_hal_spi.o(i.HAL_SPI_ErrorCallback) for HAL_SPI_ErrorCallback
    stm32f7xx_hal_spi.o(i.SPI_DMAHalfReceiveCplt) refers to stm32f7xx_hal_spi.o(i.HAL_SPI_RxHalfCpltCallback) for HAL_SPI_RxHalfCpltCallback
    stm32f7xx_hal_spi.o(i.SPI_DMAHalfTransmitCplt) refers to stm32f7xx_hal_spi.o(i.HAL_SPI_TxHalfCpltCallback) for HAL_SPI_TxHalfCpltCallback
    stm32f7xx_hal_spi.o(i.SPI_DMAHalfTransmitReceiveCplt) refers to stm32f7xx_hal_spi.o(i.HAL_SPI_TxRxHalfCpltCallback) for HAL_SPI_TxRxHalfCpltCallback
    stm32f7xx_hal_spi.o(i.SPI_DMAReceiveCplt) refers to stm32f7xx_hal.o(i.HAL_GetTick) for HAL_GetTick
    stm32f7xx_hal_spi.o(i.SPI_DMAReceiveCplt) refers to stm32f7xx_hal_spi.o(i.SPI_WaitFlagStateUntilTimeout) for SPI_WaitFlagStateUntilTimeout
    stm32f7xx_hal_spi.o(i.SPI_DMAReceiveCplt) refers to stm32f7xx_hal_spi.o(i.SPI_WaitFifoStateUntilTimeout) for SPI_WaitFifoStateUntilTimeout
    stm32f7xx_hal_spi.o(i.SPI_DMAReceiveCplt) refers to stm32f7xx_hal_spi.o(i.HAL_SPI_ErrorCallback) for HAL_SPI_ErrorCallback
    stm32f7xx_hal_spi.o(i.SPI_DMAReceiveCplt) refers to spi_masterslave.o(i.HAL_SPI_RxCpltCallback) for HAL_SPI_RxCpltCallback
    stm32f7xx_hal_spi.o(i.SPI_DMARxAbortCallback) refers to stm32f7xx_hal.o(i.HAL_GetTick) for HAL_GetTick
    stm32f7xx_hal_spi.o(i.SPI_DMARxAbortCallback) refers to stm32f7xx_hal_spi.o(i.SPI_WaitFlagStateUntilTimeout) for SPI_WaitFlagStateUntilTimeout
    stm32f7xx_hal_spi.o(i.SPI_DMARxAbortCallback) refers to stm32f7xx_hal_spi.o(i.SPI_WaitFifoStateUntilTimeout) for SPI_WaitFifoStateUntilTimeout
    stm32f7xx_hal_spi.o(i.SPI_DMARxAbortCallback) refers to stm32f7xx_hal_spi.o(i.HAL_SPI_AbortCpltCallback) for HAL_SPI_AbortCpltCallback
    stm32f7xx_hal_spi.o(i.SPI_DMATransmitCplt) refers to stm32f7xx_hal.o(i.HAL_GetTick) for HAL_GetTick
    stm32f7xx_hal_spi.o(i.SPI_DMATransmitCplt) refers to stm32f7xx_hal_spi.o(i.SPI_EndRxTxTransaction) for SPI_EndRxTxTransaction
    stm32f7xx_hal_spi.o(i.SPI_DMATransmitCplt) refers to stm32f7xx_hal_spi.o(i.HAL_SPI_ErrorCallback) for HAL_SPI_ErrorCallback
    stm32f7xx_hal_spi.o(i.SPI_DMATransmitCplt) refers to spi_masterslave.o(i.HAL_SPI_TxCpltCallback) for HAL_SPI_TxCpltCallback
    stm32f7xx_hal_spi.o(i.SPI_DMATransmitReceiveCplt) refers to stm32f7xx_hal.o(i.HAL_GetTick) for HAL_GetTick
    stm32f7xx_hal_spi.o(i.SPI_DMATransmitReceiveCplt) refers to stm32f7xx_hal_spi.o(i.SPI_EndRxTxTransaction) for SPI_EndRxTxTransaction
    stm32f7xx_hal_spi.o(i.SPI_DMATransmitReceiveCplt) refers to stm32f7xx_hal_spi.o(i.HAL_SPI_ErrorCallback) for HAL_SPI_ErrorCallback
    stm32f7xx_hal_spi.o(i.SPI_DMATransmitReceiveCplt) refers to stm32f7xx_hal_spi.o(i.HAL_SPI_TxRxCpltCallback) for HAL_SPI_TxRxCpltCallback
    stm32f7xx_hal_spi.o(i.SPI_DMATxAbortCallback) refers to stm32f7xx_hal.o(i.HAL_GetTick) for HAL_GetTick
    stm32f7xx_hal_spi.o(i.SPI_DMATxAbortCallback) refers to stm32f7xx_hal_spi.o(i.SPI_EndRxTxTransaction) for SPI_EndRxTxTransaction
    stm32f7xx_hal_spi.o(i.SPI_DMATxAbortCallback) refers to stm32f7xx_hal_spi.o(i.SPI_WaitFifoStateUntilTimeout) for SPI_WaitFifoStateUntilTimeout
    stm32f7xx_hal_spi.o(i.SPI_DMATxAbortCallback) refers to stm32f7xx_hal_spi.o(i.HAL_SPI_AbortCpltCallback) for HAL_SPI_AbortCpltCallback
    stm32f7xx_hal_spi.o(i.SPI_EndRxTxTransaction) refers to stm32f7xx_hal_spi.o(i.SPI_WaitFifoStateUntilTimeout) for SPI_WaitFifoStateUntilTimeout
    stm32f7xx_hal_spi.o(i.SPI_EndRxTxTransaction) refers to stm32f7xx_hal_spi.o(i.SPI_WaitFlagStateUntilTimeout) for SPI_WaitFlagStateUntilTimeout
    stm32f7xx_hal_spi.o(i.SPI_RxISR_16BIT) refers to stm32f7xx_hal.o(i.HAL_GetTick) for HAL_GetTick
    stm32f7xx_hal_spi.o(i.SPI_RxISR_16BIT) refers to stm32f7xx_hal_spi.o(i.SPI_WaitFlagStateUntilTimeout) for SPI_WaitFlagStateUntilTimeout
    stm32f7xx_hal_spi.o(i.SPI_RxISR_16BIT) refers to stm32f7xx_hal_spi.o(i.SPI_WaitFifoStateUntilTimeout) for SPI_WaitFifoStateUntilTimeout
    stm32f7xx_hal_spi.o(i.SPI_RxISR_16BIT) refers to stm32f7xx_hal_spi.o(i.HAL_SPI_ErrorCallback) for HAL_SPI_ErrorCallback
    stm32f7xx_hal_spi.o(i.SPI_RxISR_16BIT) refers to spi_masterslave.o(i.HAL_SPI_RxCpltCallback) for HAL_SPI_RxCpltCallback
    stm32f7xx_hal_spi.o(i.SPI_RxISR_8BIT) refers to stm32f7xx_hal.o(i.HAL_GetTick) for HAL_GetTick
    stm32f7xx_hal_spi.o(i.SPI_RxISR_8BIT) refers to stm32f7xx_hal_spi.o(i.SPI_WaitFlagStateUntilTimeout) for SPI_WaitFlagStateUntilTimeout
    stm32f7xx_hal_spi.o(i.SPI_RxISR_8BIT) refers to stm32f7xx_hal_spi.o(i.SPI_WaitFifoStateUntilTimeout) for SPI_WaitFifoStateUntilTimeout
    stm32f7xx_hal_spi.o(i.SPI_RxISR_8BIT) refers to stm32f7xx_hal_spi.o(i.HAL_SPI_ErrorCallback) for HAL_SPI_ErrorCallback
    stm32f7xx_hal_spi.o(i.SPI_RxISR_8BIT) refers to spi_masterslave.o(i.HAL_SPI_RxCpltCallback) for HAL_SPI_RxCpltCallback
    stm32f7xx_hal_spi.o(i.SPI_TxISR_16BIT) refers to stm32f7xx_hal.o(i.HAL_GetTick) for HAL_GetTick
    stm32f7xx_hal_spi.o(i.SPI_TxISR_16BIT) refers to stm32f7xx_hal_spi.o(i.SPI_EndRxTxTransaction) for SPI_EndRxTxTransaction
    stm32f7xx_hal_spi.o(i.SPI_TxISR_16BIT) refers to stm32f7xx_hal_spi.o(i.HAL_SPI_ErrorCallback) for HAL_SPI_ErrorCallback
    stm32f7xx_hal_spi.o(i.SPI_TxISR_16BIT) refers to spi_masterslave.o(i.HAL_SPI_TxCpltCallback) for HAL_SPI_TxCpltCallback
    stm32f7xx_hal_spi.o(i.SPI_TxISR_8BIT) refers to stm32f7xx_hal.o(i.HAL_GetTick) for HAL_GetTick
    stm32f7xx_hal_spi.o(i.SPI_TxISR_8BIT) refers to stm32f7xx_hal_spi.o(i.SPI_EndRxTxTransaction) for SPI_EndRxTxTransaction
    stm32f7xx_hal_spi.o(i.SPI_TxISR_8BIT) refers to stm32f7xx_hal_spi.o(i.HAL_SPI_ErrorCallback) for HAL_SPI_ErrorCallback
    stm32f7xx_hal_spi.o(i.SPI_TxISR_8BIT) refers to spi_masterslave.o(i.HAL_SPI_TxCpltCallback) for HAL_SPI_TxCpltCallback
    stm32f7xx_hal_spi.o(i.SPI_WaitFifoStateUntilTimeout) refers to stm32f7xx_hal.o(i.HAL_GetTick) for HAL_GetTick
    stm32f7xx_hal_spi.o(i.SPI_WaitFlagStateUntilTimeout) refers to stm32f7xx_hal.o(i.HAL_GetTick) for HAL_GetTick
    system_stm32f7xx.o(i.SystemCoreClockUpdate) refers to system_stm32f7xx.o(.data) for .data
    system_stm32f7xx.o(i.SystemCoreClockUpdate) refers to system_stm32f7xx.o(.constdata) for .constdata
    init_protection.o(i.init_protection) refers to configparams.o(.data) for pEN
    init_protection.o(i.init_protection) refers to fc50.o(.bss) for fc50_obj1_L1_in
    init_protection.o(i.init_protection) refers to init_protection.o(.bss) for .bss
    init_protection.o(i.init_protection) refers to fc51.o(.bss) for fc51_obj1_in
    init_protection.o(i.init_protection) refers to fc50n.o(.bss) for fc50N_obj1_L1_in
    init_protection.o(i.init_protection) refers to fc51n.o(.bss) for fc51N_obj1_in
    init_protection.o(i.init_protection) refers to fc27.o(.bss) for fc27_obj1_L1_in
    init_protection.o(i.init_protection) refers to fc59.o(.bss) for fc59_obj1_L1_in
    init_protection.o(i.init_protection) refers to fc46.o(.bss) for fc46d_obj1_L1_in
    init_protection.o(i.init_protection) refers to fc49.o(.data) for fc49_obj1_L1_in
    init_protection.o(i.init_protection) refers to fcbf.o(.bss) for fcBF_in
    init_protection.o(i.init_protection) refers to fc37.o(.bss) for fc37_obj1_L1_in
    init_protection.o(i.init_protection) refers to fcunb.o(.bss) for fcUNBd_obj1_L1_in
    init_protection.o(i.init_protection) refers to fcunb.o(.data) for fcUNBi_obj1_L1_in
    init_protection.o(i.init_protection) refers to fcpvp.o(.bss) for fcPVPd_obj1_L1_in
    init_protection.o(i.init_protection) refers to init_protection.o(.data) for .data
    fc50.o(i.fc50_all) refers to protection_functions.o(i.fc50) for fc50
    fc50.o(i.fc50_all) refers to configparams.o(.data) for mSelect
    fc50.o(i.fc50_all) refers to cs_handles.o(.bss) for fRMS
    fc50.o(i.fc50_all) refers to truerms.o(.bss) for tRMS
    fc50.o(i.fc50_all) refers to init_protection.o(.bss) for EN
    fc50.o(i.fc50_all) refers to fc50.o(.bss) for .bss
    fc50.o(i.fc50_init) refers to fc50.o(.bss) for .bss
    fc50.o(i.fc50_init) refers to fc50.o(.constdata) for .constdata
    fc50n.o(i.fc50N_all) refers to protection_functions.o(i.fc50) for fc50
    fc50n.o(i.fc50N_all) refers to configparams.o(.data) for mSelect
    fc50n.o(i.fc50N_all) refers to cs_handles.o(.bss) for fRMS
    fc50n.o(i.fc50N_all) refers to truerms.o(.bss) for tRMS
    fc50n.o(i.fc50N_all) refers to init_protection.o(.bss) for EN
    fc50n.o(i.fc50N_all) refers to fc50n.o(.bss) for .bss
    fc50n.o(i.fc50N_init) refers to fc50n.o(.bss) for .bss
    fc50n.o(i.fc50N_init) refers to fc50n.o(.constdata) for .constdata
    fc51.o(i.fc51_all) refers to protection_functions.o(i.fc51) for fc51
    fc51.o(i.fc51_all) refers to truerms.o(.bss) for tRMS
    fc51.o(i.fc51_all) refers to configparams.o(.data) for mSelect
    fc51.o(i.fc51_all) refers to cs_handles.o(.bss) for fRMS
    fc51.o(i.fc51_all) refers to init_protection.o(.bss) for EN
    fc51.o(i.fc51_all) refers to fc51.o(.bss) for .bss
    fc51.o(i.fc51_init) refers to fc51.o(.bss) for .bss
    fc51.o(i.fc51_init) refers to init_protection.o(.data) for curve_data
    fc51.o(i.fc51_init) refers to fc51.o(.constdata) for .constdata
    fc51n.o(i.fc51N_all) refers to protection_functions.o(i.fc51) for fc51
    fc51n.o(i.fc51N_all) refers to configparams.o(.data) for mSelect
    fc51n.o(i.fc51N_all) refers to cs_handles.o(.bss) for fRMS
    fc51n.o(i.fc51N_all) refers to truerms.o(.bss) for tRMS
    fc51n.o(i.fc51N_all) refers to init_protection.o(.bss) for EN
    fc51n.o(i.fc51N_all) refers to fc51n.o(.bss) for .bss
    fc51n.o(i.fc51N_init) refers to init_protection.o(.data) for curve_data
    fc51n.o(i.fc51N_init) refers to fc51n.o(.bss) for .bss
    fc51n.o(i.fc51N_init) refers to fc51n.o(.constdata) for .constdata
    fc27.o(i.fc27_all) refers to protection_functions.o(i.on_off_delay) for on_off_delay
    fc27.o(i.fc27_all) refers to protection_functions.o(i.fc27) for fc27
    fc27.o(i.fc27_all) refers to powersysdata.o(.bss) for Sys
    fc27.o(i.fc27_all) refers to fc27.o(.data) for .data
    fc27.o(i.fc27_all) refers to cs_handles.o(.bss) for fRMS
    fc27.o(i.fc27_all) refers to init_protection.o(.bss) for EN
    fc27.o(i.fc27_all) refers to fc27.o(.bss) for .bss
    fc27.o(i.fc27_init) refers to fc27.o(.bss) for .bss
    fc27.o(i.fc27_init) refers to fc27.o(.constdata) for .constdata
    fc59.o(i.fc59_all) refers to protection_functions.o(i.fc59) for fc59
    fc59.o(i.fc59_all) refers to init_protection.o(.bss) for EN
    fc59.o(i.fc59_all) refers to truerms.o(.bss) for tRMS
    fc59.o(i.fc59_all) refers to fc59.o(.bss) for .bss
    fc59.o(i.fc59_init) refers to fc59.o(.bss) for .bss
    fc59.o(i.fc59_init) refers to fc59.o(.constdata) for .constdata
    fc46.o(i.fc46_all) refers to protection_functions.o(i.fc46d) for fc46d
    fc46.o(i.fc46_all) refers to protection_functions.o(i.fc46i) for fc46i
    fc46.o(i.fc46_all) refers to powersysdata.o(.bss) for Sys
    fc46.o(i.fc46_all) refers to cs_handles.o(.bss) for mag_sym
    fc46.o(i.fc46_all) refers to fc46.o(.data) for .data
    fc46.o(i.fc46_all) refers to init_protection.o(.bss) for EN
    fc46.o(i.fc46_all) refers to fc46.o(.bss) for .bss
    fc46.o(i.fc46_init) refers to fc46.o(.constdata) for .constdata
    fc46.o(i.fc46_init) refers to fc46.o(.bss) for .bss
    fc46.o(i.fc46_init) refers to init_protection.o(.data) for curve_data
    fc49.o(i.fc49_all) refers to measurement_functions.o(i.thermal_status) for thermal_status
    fc49.o(i.fc49_all) refers to protection_functions.o(i.fc49) for fc49
    fc49.o(i.fc49_all) refers to fc49.o(.bss) for .bss
    fc49.o(i.fc49_all) refers to truerms.o(.bss) for tRMS
    fc49.o(i.fc49_all) refers to fc49.o(.data) for .data
    fc49.o(i.fc49_all) refers to init_protection.o(.bss) for EN
    fc49.o(i.fc49_init) refers to fc49.o(.constdata) for .constdata
    fc49.o(i.fc49_init) refers to fc49.o(.bss) for .bss
    fc49.o(i.fc49_init) refers to powersysdata.o(.bss) for Sys
    fc49.o(i.fc49_init) refers to fc49.o(.data) for .data
    fcbf.o(i.fcBF_all) refers to protection_functions.o(i.fcBF) for fcBF
    fcbf.o(i.fcBF_all) refers to cs_handles.o(.bss) for fRMS
    fcbf.o(i.fcBF_all) refers to fcbf.o(.bss) for .bss
    fcbf.o(i.fcBF_all) refers to powersysdata.o(.bss) for Sys
    fcbf.o(i.fcBF_all) refers to boardio.o(.data) for DI
    fcbf.o(i.fcBF_all) refers to init_protection.o(.bss) for EN
    fcbf.o(i.fcBF_init) refers to fcbf.o(.constdata) for .constdata
    fcbf.o(i.fcBF_init) refers to fcbf.o(.bss) for .bss
    fc37.o(i.fc37_all) refers to protection_functions.o(i.maxSelector_3p) for maxSelector_3p
    fc37.o(i.fc37_all) refers to protection_functions.o(i.on_delay) for on_delay
    fc37.o(i.fc37_all) refers to protection_functions.o(i.off_delay) for off_delay
    fc37.o(i.fc37_all) refers to protection_functions.o(i.fc37) for fc37
    fc37.o(i.fc37_all) refers to cs_handles.o(.bss) for fRMS
    fc37.o(i.fc37_all) refers to boardio.o(.data) for DI
    fc37.o(i.fc37_all) refers to powersysdata.o(.bss) for Sys
    fc37.o(i.fc37_all) refers to fc37.o(.data) for .data
    fc37.o(i.fc37_all) refers to init_protection.o(.bss) for EN
    fc37.o(i.fc37_all) refers to fc37.o(.bss) for .bss
    fc37.o(i.fc37_all) refers to truerms.o(.bss) for tRMS
    fc37.o(i.fc37_init) refers to fc37.o(.bss) for .bss
    fc37.o(i.fc37_init) refers to fc37.o(.constdata) for .constdata
    fcunb.o(i.fcUNB_all) refers to atan2f.o(i.__hardfp_atan2f) for __hardfp_atan2f
    fcunb.o(i.fcUNB_all) refers to sin.o(i.__hardfp_sin) for __hardfp_sin
    fcunb.o(i.fcUNB_all) refers to measurement_functions.o(i.true_rms) for true_rms
    fcunb.o(i.fcUNB_all) refers to protection_functions.o(i.fcUNBd) for fcUNBd
    fcunb.o(i.fcUNB_all) refers to protection_functions.o(i.fcUNBi) for fcUNBi
    fcunb.o(i.fcUNB_all) refers to cs_handles.o(.data) for UNBa
    fcunb.o(i.fcUNB_all) refers to fcunb.o(.data) for .data
    fcunb.o(i.fcUNB_all) refers to cs_handles.o(.bss) for phase_cs_A_out
    fcunb.o(i.fcUNB_all) refers to fcunb.o(.bss) for .bss
    fcunb.o(i.fcUNB_all) refers to conversion.o(.bss) for fAdc
    fcunb.o(i.fcUNB_all) refers to init_protection.o(.bss) for EN
    fcunb.o(i.fcUNB_init) refers to fcunb.o(.constdata) for .constdata
    fcunb.o(i.fcUNB_init) refers to fcunb.o(.bss) for .bss
    fcunb.o(i.fcUNB_init) refers to fcunb.o(.data) for .data
    fcunb.o(i.fcUNB_initial_dt) refers to atan2f.o(i.__hardfp_atan2f) for __hardfp_atan2f
    fcunb.o(i.fcUNB_initial_dt) refers to cs_handles.o(.data) for UNBa
    fcunb.o(i.fcUNB_initial_dt) refers to fcunb.o(.data) for .data
    fcunb.o(i.fcUNB_initial_dt) refers to cs_handles.o(.bss) for phase_cs_A_out
    fcunb.o(i.fcUNB_initial_dt) refers to fcunb.o(.bss) for .bss
    fcpvp.o(i.fcPVP_all) refers to measurement_functions.o(i.pvp_filter) for pvp_filter
    fcpvp.o(i.fcPVP_all) refers to measurement_functions.o(i.peak_detect_rms) for peak_detect_rms
    fcpvp.o(i.fcPVP_all) refers to protection_functions.o(i.fcPVPd) for fcPVPd
    fcpvp.o(i.fcPVP_all) refers to protection_functions.o(i.fcPVPi) for fcPVPi
    fcpvp.o(i.fcPVP_all) refers to conversion.o(.bss) for fAdc
    fcpvp.o(i.fcPVP_all) refers to fcpvp.o(.bss) for .bss
    fcpvp.o(i.fcPVP_all) refers to fcpvp.o(.data) for .data
    fcpvp.o(i.fcPVP_all) refers to init_protection.o(.bss) for EN
    fcpvp.o(i.fcPVP_init) refers to fcpvp.o(.constdata) for .constdata
    fcpvp.o(i.fcPVP_init) refers to fcpvp.o(.bss) for .bss
    pickup_handles.o(i.pick_trip_reset_handles) refers to pickup_handles.o(i.pick_up_handles) for pick_up_handles
    pickup_handles.o(i.pick_trip_reset_handles) refers to pickup_handles.o(i.reset_handles) for reset_handles
    pickup_handles.o(i.pick_trip_reset_handles) refers to pickup_handles.o(i.trip_handles) for trip_handles
    pickup_handles.o(i.pick_up_handles) refers to protection_functions.o(i.off_delay) for off_delay
    pickup_handles.o(i.pick_up_handles) refers to pickup_handles.o(.bss) for .bss
    pickup_handles.o(i.pick_up_handles) refers to pickup_handles.o(.data) for .data
    pickup_handles.o(i.pick_up_handles) refers to fc50.o(.bss) for fc50_obj1_L1_out_a
    pickup_handles.o(i.pick_up_handles) refers to fc50n.o(.bss) for fc50N_obj1_L1_out
    pickup_handles.o(i.pick_up_handles) refers to fc51.o(.bss) for fc51_obj1_out_a
    pickup_handles.o(i.pick_up_handles) refers to fc51n.o(.bss) for fc51N_obj1_out
    pickup_handles.o(i.pick_up_handles) refers to fc27.o(.data) for fc27_obj1_L1_out
    pickup_handles.o(i.pick_up_handles) refers to fc59.o(.bss) for fc59_obj1_L1_out_a
    pickup_handles.o(i.pick_up_handles) refers to fc46.o(.bss) for fc46d_obj1_L1_out
    pickup_handles.o(i.pick_up_handles) refers to fc49.o(.data) for fc49_obj1_L1_out_a
    pickup_handles.o(i.pick_up_handles) refers to fcbf.o(.bss) for fcBF_out
    pickup_handles.o(i.pick_up_handles) refers to fc37.o(.data) for fc37_obj1_L1_out_a
    pickup_handles.o(i.pick_up_handles) refers to fcunb.o(.bss) for fcUNBd_obj1_L1_out_a
    pickup_handles.o(i.pick_up_handles) refers to fcpvp.o(.data) for fcPVPd_obj1_L1_out_a
    pickup_handles.o(i.pick_up_handles) refers to fcpvp.o(.bss) for fcPVPi_obj1_L1_out_a
    pickup_handles.o(i.pick_up_handles) refers to boardio.o(.data) for DO
    pickup_handles.o(i.reset_handles) refers to boardio.o(.data) for DI
    pickup_handles.o(i.reset_handles) refers to pickup_handles.o(.bss) for .bss
    pickup_handles.o(i.reset_handles) refers to fc50.o(.bss) for fc50_obj1_L1_out_a
    pickup_handles.o(i.reset_handles) refers to fc50n.o(.bss) for fc50N_obj1_L1_out
    pickup_handles.o(i.reset_handles) refers to fc51.o(.bss) for fc51_obj1_out_a
    pickup_handles.o(i.reset_handles) refers to fc51n.o(.bss) for fc51N_obj1_out
    pickup_handles.o(i.reset_handles) refers to fc27.o(.data) for fc27_obj1_L1_out
    pickup_handles.o(i.reset_handles) refers to fc59.o(.bss) for fc59_obj1_L1_out_a
    pickup_handles.o(i.reset_handles) refers to fc46.o(.bss) for fc46d_obj1_L1_out
    pickup_handles.o(i.reset_handles) refers to fc49.o(.data) for fc49_obj1_L1_out_a
    pickup_handles.o(i.reset_handles) refers to fcbf.o(.bss) for fcBF_out
    pickup_handles.o(i.reset_handles) refers to fc37.o(.data) for fc37_obj1_L1_out_a
    pickup_handles.o(i.reset_handles) refers to fcunb.o(.bss) for fcUNBd_obj1_L1_out_a
    pickup_handles.o(i.reset_handles) refers to fcpvp.o(.data) for fcPVPd_obj1_L1_out_a
    pickup_handles.o(i.reset_handles) refers to fcpvp.o(.bss) for fcPVPi_obj1_L1_out_a
    pickup_handles.o(i.trip_handles) refers to fc50.o(.bss) for fc50_obj1_L1_out_a
    pickup_handles.o(i.trip_handles) refers to pickup_handles.o(.bss) for .bss
    pickup_handles.o(i.trip_handles) refers to fc50n.o(.bss) for fc50N_obj1_L1_out
    pickup_handles.o(i.trip_handles) refers to fc51.o(.bss) for fc51_obj1_out_a
    pickup_handles.o(i.trip_handles) refers to fc51n.o(.bss) for fc51N_obj1_out
    pickup_handles.o(i.trip_handles) refers to boardio.o(.data) for DO
    pickup_handles.o(i.trip_handles) refers to pickup_handles.o(.data) for .data
    pickup_handles.o(i.trip_handles) refers to fc27.o(.data) for fc27_obj1_L1_out
    pickup_handles.o(i.trip_handles) refers to fc59.o(.bss) for fc59_obj1_L1_out_a
    pickup_handles.o(i.trip_handles) refers to fc46.o(.bss) for fc46d_obj1_L1_out
    pickup_handles.o(i.trip_handles) refers to fc49.o(.data) for fc49_obj1_L1_out_a
    pickup_handles.o(i.trip_handles) refers to fcbf.o(.bss) for fcBF_out
    pickup_handles.o(i.trip_handles) refers to fc37.o(.data) for fc37_obj1_L1_out_a
    pickup_handles.o(i.trip_handles) refers to fcunb.o(.bss) for fcUNBd_obj1_L1_out_a
    pickup_handles.o(i.trip_handles) refers to fcpvp.o(.data) for fcPVPd_obj1_L1_out_a
    pickup_handles.o(i.trip_handles) refers to fcpvp.o(.bss) for fcPVPi_obj1_L1_out_a
    cs_handles.o(i.cs_PQ_combination) refers to cs_handles.o(.bss) for .bss
    cs_handles.o(i.cs_handles) refers to measurement_functions.o(i.cs_generation) for cs_generation
    cs_handles.o(i.cs_handles) refers to measurement_functions.o(i.cs_computations) for cs_computations
    cs_handles.o(i.cs_handles) refers to measurement_functions.o(i.sym_comp) for sym_comp
    cs_handles.o(i.cs_handles) refers to measurement_functions.o(i.sym_mag) for sym_mag
    cs_handles.o(i.cs_handles) refers to sqrtf.o(i.__hardfp_sqrtf) for __hardfp_sqrtf
    cs_handles.o(i.cs_handles) refers to cs_handles.o(i.cs_PQ_combination) for cs_PQ_combination
    cs_handles.o(i.cs_handles) refers to conversion.o(.bss) for fAdc
    cs_handles.o(i.cs_handles) refers to cs_handles.o(.bss) for .bss
    cs_handles.o(i.cs_handles) refers to cs_handles.o(.data) for .data
    truerms.o(i.trueRMS) refers to measurement_functions.o(i.true_rms) for true_rms
    truerms.o(i.trueRMS) refers to conversion.o(.bss) for fAdc
    truerms.o(i.trueRMS) refers to truerms.o(.data) for .data
    truerms.o(i.trueRMS) refers to truerms.o(.bss) for .bss
    spectra.o(i.spectral_analysis) refers to measurement_functions.o(i.signal_spectra) for signal_spectra
    spectra.o(i.spectral_analysis) refers to spectra.o(.data) for .data
    spectra.o(i.spectral_analysis) refers to conversion.o(.bss) for fAdc
    spectra.o(i.spectral_analysis) refers to spectra.o(.bss) for .bss
    conversion.o(i.HAL_ADC_ConvCpltCallback) refers to stm32f7xx_hal_gpio.o(i.HAL_GPIO_WritePin) for HAL_GPIO_WritePin
    conversion.o(i.HAL_ADC_ConvCpltCallback) refers to main_flow.o(i.main_flow) for main_flow
    conversion.o(i.HAL_ADC_ConvCpltCallback) refers to main.o(.bss) for adc_values
    conversion.o(i.HAL_ADC_ConvCpltCallback) refers to conversion.o(.bss) for .bss
    conversion.o(i.HAL_ADC_ConvCpltCallback) refers to conversion.o(.data) for .data
    conversion.o(i.averager) refers to conversion.o(.data) for .data
    conversion.o(i.averager) refers to conversion.o(.bss) for .bss
    conversion.o(i.init_conversion) refers to conversion.o(.bss) for .bss
    initfunctions.o(i.initFunctions) refers to conversion.o(i.init_conversion) for init_conversion
    initfunctions.o(i.initFunctions) refers to fc50.o(i.fc50_init) for fc50_init
    initfunctions.o(i.initFunctions) refers to fc51.o(i.fc51_init) for fc51_init
    initfunctions.o(i.initFunctions) refers to fc50n.o(i.fc50N_init) for fc50N_init
    initfunctions.o(i.initFunctions) refers to fc51n.o(i.fc51N_init) for fc51N_init
    initfunctions.o(i.initFunctions) refers to fc27.o(i.fc27_init) for fc27_init
    initfunctions.o(i.initFunctions) refers to fc59.o(i.fc59_init) for fc59_init
    initfunctions.o(i.initFunctions) refers to fc46.o(i.fc46_init) for fc46_init
    initfunctions.o(i.initFunctions) refers to fc49.o(i.fc49_init) for fc49_init
    initfunctions.o(i.initFunctions) refers to fcbf.o(i.fcBF_init) for fcBF_init
    initfunctions.o(i.initFunctions) refers to fc37.o(i.fc37_init) for fc37_init
    initfunctions.o(i.initFunctions) refers to fcunb.o(i.fcUNB_init) for fcUNB_init
    initfunctions.o(i.initFunctions) refers to fcpvp.o(i.fcPVP_init) for fcPVP_init
    boardio.o(i.boardIO) refers to stm32f7xx_hal_gpio.o(i.HAL_GPIO_ReadPin) for HAL_GPIO_ReadPin
    boardio.o(i.boardIO) refers to stm32f7xx_hal_gpio.o(i.HAL_GPIO_WritePin) for HAL_GPIO_WritePin
    boardio.o(i.boardIO) refers to boardio.o(.data) for .data
    dataparsermerger.o(i.dpm_mergeFloat) refers to dataparsermerger.o(.data) for .data
    dataparsermerger.o(i.dpm_parseFloat) refers to dataparsermerger.o(.data) for .data
    modbus_masterslave.o(i.modbus_preparePushData) refers to dataparsermerger.o(i.dpm_parseDWord) for dpm_parseDWord
    modbus_masterslave.o(i.modbus_preparePushData) refers to dataparsermerger.o(i.dpm_parseFloat) for dpm_parseFloat
    modbus_masterslave.o(i.modbus_preparePushData) refers to spi_masterslave.o(.bss) for comParams
    modbus_masterslave.o(i.modbus_preparePushData) refers to modbus_masterslave.o(.bss) for .bss
    modbus_masterslave.o(i.modbus_prepareReceiveData) refers to dataparsermerger.o(i.dpm_mergeFloat) for dpm_mergeFloat
    modbus_masterslave.o(i.modbus_prepareReceiveData) refers to dataparsermerger.o(i.dpm_mergeDWord) for dpm_mergeDWord
    modbus_masterslave.o(i.modbus_prepareReceiveData) refers to uart_masterslave.o(.bss) for comParams_uart
    modbus_masterslave.o(i.modbus_prepareReceiveData) refers to modbus_masterslave.o(.bss) for .bss
    spi_masterslave.o(i.HAL_SPI_RxCpltCallback) refers to spi.o(.bss) for hspi2
    spi_masterslave.o(i.HAL_SPI_RxCpltCallback) refers to spi_masterslave.o(.bss) for .bss
    spi_masterslave.o(i.HAL_SPI_TxCpltCallback) refers to spi.o(.bss) for hspi2
    spi_masterslave.o(i.HAL_SPI_TxCpltCallback) refers to spi_masterslave.o(.bss) for .bss
    spi_masterslave.o(i.spi_runComApp) refers to dataparsermerger.o(i.dpm_parseDWord) for dpm_parseDWord
    spi_masterslave.o(i.spi_runComApp) refers to dataparsermerger.o(i.dpm_parseFloat) for dpm_parseFloat
    spi_masterslave.o(i.spi_runComApp) refers to stm32f7xx_hal_spi.o(i.HAL_SPI_Transmit_IT) for HAL_SPI_Transmit_IT
    spi_masterslave.o(i.spi_runComApp) refers to dataparsermerger.o(i.dpm_mergeDWord) for dpm_mergeDWord
    spi_masterslave.o(i.spi_runComApp) refers to dataparsermerger.o(i.dpm_mergeFloat) for dpm_mergeFloat
    spi_masterslave.o(i.spi_runComApp) refers to spi_masterslave.o(.bss) for .bss
    spi_masterslave.o(i.spi_runComApp) refers to spi.o(.bss) for hspi2
    spi_masterslave.o(i.spi_sysTickCallApp) refers to spi_masterslave.o(.bss) for .bss
    uart_masterslave.o(i.HAL_UART_RxCpltCallback) refers to stm32f7xx_hal_uart.o(i.HAL_UART_Receive_IT) for HAL_UART_Receive_IT
    uart_masterslave.o(i.HAL_UART_RxCpltCallback) refers to uart_masterslave.o(.bss) for .bss
    uart_masterslave.o(i.HAL_UART_RxCpltCallback) refers to usart.o(.bss) for huart2
    uart_masterslave.o(i.HAL_UART_TxCpltCallback) refers to uart_masterslave.o(.bss) for .bss
    uart_masterslave.o(i.uart_initComApp) refers to stm32f7xx_hal_uart.o(i.HAL_UART_Receive_IT) for HAL_UART_Receive_IT
    uart_masterslave.o(i.uart_initComApp) refers to uart_masterslave.o(.bss) for .bss
    uart_masterslave.o(i.uart_initComApp) refers to usart.o(.bss) for huart2
    uart_masterslave.o(i.uart_runComApp) refers to dataparsermerger.o(i.dpm_mergeDWord) for dpm_mergeDWord
    uart_masterslave.o(i.uart_runComApp) refers to dataparsermerger.o(i.dpm_mergeFloat) for dpm_mergeFloat
    uart_masterslave.o(i.uart_runComApp) refers to usart.o(i.MX_USART2_UART_Init) for MX_USART2_UART_Init
    uart_masterslave.o(i.uart_runComApp) refers to stm32f7xx_hal_uart.o(i.HAL_UART_Receive_IT) for HAL_UART_Receive_IT
    uart_masterslave.o(i.uart_runComApp) refers to uart_masterslave.o(.bss) for .bss
    uart_masterslave.o(i.uart_runComApp) refers to usart.o(.bss) for huart2
    uart_masterslave.o(i.uart_sysTickCallApp) refers to uart_masterslave.o(.bss) for .bss
    commparams.o(i.pushDataToMaster) refers to pickup_handles.o(.bss) for pick_words
    commparams.o(i.pushDataToMaster) refers to spi_masterslave.o(.bss) for comParams
    commparams.o(i.pushDataToMaster) refers to boardio.o(.data) for DI
    commparams.o(i.pushDataToMaster) refers to truerms.o(.bss) for tRMS
    commparams.o(i.pushDataToMaster) refers to cs_handles.o(.bss) for fRMS
    commparams.o(i.pushDataToMaster) refers to spectra.o(.bss) for spect_Ia
    commparams.o(i.pushDataToMaster) refers to spectra.o(.bss) for thd
    commparams.o(i.pushDataToMaster) refers to powersysdata.o(.bss) for Sys
    commparams.o(i.pushDataToMaster) refers to configparams.o(.data) for pEN
    commparams.o(i.pushDataToMaster) refers to init_protection.o(.data) for cSelect1
    commparams.o(i.pushDataToMaster) refers to fc50.o(.bss) for fc50_obj1_L1_in
    commparams.o(i.pushDataToMaster) refers to fc51.o(.bss) for fc51_obj1_in
    commparams.o(i.pushDataToMaster) refers to fc50n.o(.bss) for fc50N_obj1_L1_in
    commparams.o(i.pushDataToMaster) refers to fc51n.o(.bss) for fc51N_obj1_in
    commparams.o(i.pushDataToMaster) refers to fc59.o(.bss) for fc59_obj1_L1_in
    commparams.o(i.pushDataToMaster) refers to fc27.o(.bss) for fc27_obj1_L1_in
    commparams.o(i.pushDataToMaster) refers to fc46.o(.bss) for fc46d_obj1_L1_in
    commparams.o(i.pushDataToMaster) refers to fc49.o(.bss) for fc49_obj1_therm
    commparams.o(i.pushDataToMaster) refers to fc49.o(.data) for fc49_obj1_L1_in
    commparams.o(i.pushDataToMaster) refers to fcbf.o(.bss) for fcBF_in
    commparams.o(i.pushDataToMaster) refers to fc37.o(.bss) for fc37_obj1_L1_in
    commparams.o(i.pushDataToMaster) refers to fcunb.o(.bss) for fcUNBd_obj1_L1_in
    commparams.o(i.pushDataToMaster) refers to fcunb.o(.data) for fcUNBi_obj1_L1_in
    commparams.o(i.pushDataToMaster) refers to fcpvp.o(.bss) for fcPVPd_obj1_L1_in
    commparams.o(i.pushDataToMaster) refers to conversion.o(.bss) for TR
    configparams.o(i.pullDataFromMaster) refers to init_protection.o(i.init_protection) for init_protection
    configparams.o(i.pullDataFromMaster) refers to uart_masterslave.o(.bss) for comParams_uart
    configparams.o(i.pullDataFromMaster) refers to configparams.o(.data) for .data
    configparams.o(i.pullDataFromMaster) refers to init_protection.o(.data) for cSelect1
    configparams.o(i.pullDataFromMaster) refers to powersysdata.o(.bss) for Sys
    configparams.o(i.pullDataFromMaster) refers to fc50.o(.bss) for fc50_obj1_L1_in
    configparams.o(i.pullDataFromMaster) refers to fc51.o(.bss) for fc51_obj1_in
    configparams.o(i.pullDataFromMaster) refers to fc50n.o(.bss) for fc50N_obj1_L1_in
    configparams.o(i.pullDataFromMaster) refers to fc51n.o(.bss) for fc51N_obj1_in
    configparams.o(i.pullDataFromMaster) refers to fc59.o(.bss) for fc59_obj1_L1_in
    configparams.o(i.pullDataFromMaster) refers to fc27.o(.bss) for fc27_obj1_L1_in
    configparams.o(i.pullDataFromMaster) refers to fc46.o(.bss) for fc46d_obj1_L1_in
    configparams.o(i.pullDataFromMaster) refers to fc49.o(.bss) for fc49_obj1_therm
    configparams.o(i.pullDataFromMaster) refers to fc49.o(.data) for fc49_obj1_L1_in
    configparams.o(i.pullDataFromMaster) refers to fcbf.o(.bss) for fcBF_in
    configparams.o(i.pullDataFromMaster) refers to fc37.o(.bss) for fc37_obj1_L1_in
    configparams.o(i.pullDataFromMaster) refers to fcunb.o(.bss) for fcUNBd_obj1_L1_in
    configparams.o(i.pullDataFromMaster) refers to fcunb.o(.data) for fcUNBi_obj1_L1_in
    configparams.o(i.pullDataFromMaster) refers to fcpvp.o(.bss) for fcPVPd_obj1_L1_in
    configparams.o(i.pullDataFromMaster) refers to conversion.o(.bss) for TR
    main_flow.o(i.main_flow) refers to cs_handles.o(i.cs_handles) for cs_handles
    main_flow.o(i.main_flow) refers to truerms.o(i.trueRMS) for trueRMS
    main_flow.o(i.main_flow) refers to fc50.o(i.fc50_all) for fc50_all
    main_flow.o(i.main_flow) refers to fc50n.o(i.fc50N_all) for fc50N_all
    main_flow.o(i.main_flow) refers to fc51.o(i.fc51_all) for fc51_all
    main_flow.o(i.main_flow) refers to fc51n.o(i.fc51N_all) for fc51N_all
    main_flow.o(i.main_flow) refers to fc27.o(i.fc27_all) for fc27_all
    main_flow.o(i.main_flow) refers to fc59.o(i.fc59_all) for fc59_all
    main_flow.o(i.main_flow) refers to fc46.o(i.fc46_all) for fc46_all
    main_flow.o(i.main_flow) refers to fc49.o(i.fc49_all) for fc49_all
    main_flow.o(i.main_flow) refers to fc37.o(i.fc37_all) for fc37_all
    main_flow.o(i.main_flow) refers to fcbf.o(i.fcBF_all) for fcBF_all
    main_flow.o(i.main_flow) refers to fcunb.o(i.fcUNB_all) for fcUNB_all
    main_flow.o(i.main_flow) refers to fcpvp.o(i.fcPVP_all) for fcPVP_all
    main_flow.o(i.main_flow) refers to pickup_handles.o(i.pick_trip_reset_handles) for pick_trip_reset_handles
    main_flow.o(i.main_flow) refers to boardio.o(i.boardIO) for boardIO
    atan2.o(i.__hardfp_atan2) refers (Special) to iusefp.o(.text) for __I$use$fp
    atan2.o(i.__hardfp_atan2) refers to dunder.o(i.__mathlib_dbl_infnan2) for __mathlib_dbl_infnan2
    atan2.o(i.__hardfp_atan2) refers to atan.o(i.atan) for atan
    atan2.o(i.__hardfp_atan2) refers to fabs.o(i.fabs) for fabs
    atan2.o(i.__hardfp_atan2) refers to qnan.o(.constdata) for __mathlib_zero
    atan2.o(i.__softfp_atan2) refers (Special) to iusefp.o(.text) for __I$use$fp
    atan2.o(i.__softfp_atan2) refers to atan2.o(i.__hardfp_atan2) for __hardfp_atan2
    atan2.o(i.atan2) refers (Special) to iusefp.o(.text) for __I$use$fp
    atan2.o(i.atan2) refers to atan2.o(i.__hardfp_atan2) for __hardfp_atan2
    atan2_x.o(i.____hardfp_atan2$lsc) refers (Special) to iusefp.o(.text) for __I$use$fp
    atan2_x.o(i.____hardfp_atan2$lsc) refers to dunder.o(i.__mathlib_dbl_infnan2) for __mathlib_dbl_infnan2
    atan2_x.o(i.____hardfp_atan2$lsc) refers to atan.o(i.atan) for atan
    atan2_x.o(i.____hardfp_atan2$lsc) refers to errno.o(i.__set_errno) for __set_errno
    atan2_x.o(i.____hardfp_atan2$lsc) refers to fabs.o(i.fabs) for fabs
    atan2_x.o(i.____hardfp_atan2$lsc) refers to qnan.o(.constdata) for __mathlib_zero
    atan2_x.o(i.____softfp_atan2$lsc) refers (Special) to iusefp.o(.text) for __I$use$fp
    atan2_x.o(i.____softfp_atan2$lsc) refers to atan2_x.o(i.____hardfp_atan2$lsc) for ____hardfp_atan2$lsc
    atan2_x.o(i.__atan2$lsc) refers (Special) to iusefp.o(.text) for __I$use$fp
    atan2_x.o(i.__atan2$lsc) refers to atan2_x.o(i.____hardfp_atan2$lsc) for ____hardfp_atan2$lsc
    atan2f.o(i.__hardfp_atan2f) refers (Special) to iusefp.o(.text) for __I$use$fp
    atan2f.o(i.__hardfp_atan2f) refers to fpclassifyf.o(i.__ARM_fpclassifyf) for __ARM_fpclassifyf
    atan2f.o(i.__hardfp_atan2f) refers to funder.o(i.__mathlib_flt_underflow) for __mathlib_flt_underflow
    atan2f.o(i.__hardfp_atan2f) refers to funder.o(i.__mathlib_flt_infnan2) for __mathlib_flt_infnan2
    atan2f.o(i.__softfp_atan2f) refers (Special) to iusefp.o(.text) for __I$use$fp
    atan2f.o(i.__softfp_atan2f) refers to atan2f.o(i.__hardfp_atan2f) for __hardfp_atan2f
    atan2f.o(i.atan2f) refers (Special) to iusefp.o(.text) for __I$use$fp
    atan2f.o(i.atan2f) refers to atan2f.o(i.__hardfp_atan2f) for __hardfp_atan2f
    atan2f_x.o(i.____hardfp_atan2f$lsc) refers (Special) to iusefp.o(.text) for __I$use$fp
    atan2f_x.o(i.____hardfp_atan2f$lsc) refers to funder.o(i.__mathlib_flt_infnan2) for __mathlib_flt_infnan2
    atan2f_x.o(i.____hardfp_atan2f$lsc) refers to errno.o(i.__set_errno) for __set_errno
    atan2f_x.o(i.____softfp_atan2f$lsc) refers (Special) to iusefp.o(.text) for __I$use$fp
    atan2f_x.o(i.____softfp_atan2f$lsc) refers to atan2f_x.o(i.____hardfp_atan2f$lsc) for ____hardfp_atan2f$lsc
    atan2f_x.o(i.__atan2f$lsc) refers (Special) to iusefp.o(.text) for __I$use$fp
    atan2f_x.o(i.__atan2f$lsc) refers to atan2f_x.o(i.____hardfp_atan2f$lsc) for ____hardfp_atan2f$lsc
    powf.o(i.__hardfp_powf) refers (Special) to iusefp.o(.text) for __I$use$fp
    powf.o(i.__hardfp_powf) refers to fpstat.o(.text) for __ieee_status
    powf.o(i.__hardfp_powf) refers to fpclassifyf.o(i.__ARM_fpclassifyf) for __ARM_fpclassifyf
    powf.o(i.__hardfp_powf) refers to funder.o(i.__mathlib_flt_underflow) for __mathlib_flt_underflow
    powf.o(i.__hardfp_powf) refers to errno.o(i.__set_errno) for __set_errno
    powf.o(i.__hardfp_powf) refers to funder.o(i.__mathlib_flt_overflow) for __mathlib_flt_overflow
    powf.o(i.__hardfp_powf) refers to funder.o(i.__mathlib_flt_invalid) for __mathlib_flt_invalid
    powf.o(i.__hardfp_powf) refers to powf.o(.constdata) for .constdata
    powf.o(i.__hardfp_powf) refers to funder.o(i.__mathlib_flt_infnan2) for __mathlib_flt_infnan2
    powf.o(i.__hardfp_powf) refers to funder.o(i.__mathlib_flt_divzero) for __mathlib_flt_divzero
    powf.o(i.__softfp_powf) refers (Special) to iusefp.o(.text) for __I$use$fp
    powf.o(i.__softfp_powf) refers to powf.o(i.__hardfp_powf) for __hardfp_powf
    powf.o(i.powf) refers (Special) to iusefp.o(.text) for __I$use$fp
    powf.o(i.powf) refers to powf.o(i.__hardfp_powf) for __hardfp_powf
    powf.o(.constdata) refers (Special) to iusefp.o(.text) for __I$use$fp
    powf_x.o(i.____hardfp_powf$lsc) refers (Special) to iusefp.o(.text) for __I$use$fp
    powf_x.o(i.____hardfp_powf$lsc) refers to fpstat.o(.text) for __ieee_status
    powf_x.o(i.____hardfp_powf$lsc) refers to errno.o(i.__set_errno) for __set_errno
    powf_x.o(i.____hardfp_powf$lsc) refers to powf_x.o(.constdata) for .constdata
    powf_x.o(i.____hardfp_powf$lsc) refers to funder.o(i.__mathlib_flt_infnan2) for __mathlib_flt_infnan2
    powf_x.o(i.____softfp_powf$lsc) refers (Special) to iusefp.o(.text) for __I$use$fp
    powf_x.o(i.____softfp_powf$lsc) refers to powf_x.o(i.____hardfp_powf$lsc) for ____hardfp_powf$lsc
    powf_x.o(i.__powf$lsc) refers (Special) to iusefp.o(.text) for __I$use$fp
    powf_x.o(i.__powf$lsc) refers to powf_x.o(i.____hardfp_powf$lsc) for ____hardfp_powf$lsc
    powf_x.o(.constdata) refers (Special) to iusefp.o(.text) for __I$use$fp
    sin.o(i.__hardfp_sin) refers (Special) to iusefp.o(.text) for __I$use$fp
    sin.o(i.__hardfp_sin) refers to errno.o(i.__set_errno) for __set_errno
    sin.o(i.__hardfp_sin) refers to dunder.o(i.__mathlib_dbl_invalid) for __mathlib_dbl_invalid
    sin.o(i.__hardfp_sin) refers to rred.o(i.__ieee754_rem_pio2) for __ieee754_rem_pio2
    sin.o(i.__hardfp_sin) refers to cos_i.o(i.__kernel_cos) for __kernel_cos
    sin.o(i.__hardfp_sin) refers to sin_i.o(i.__kernel_sin) for __kernel_sin
    sin.o(i.__softfp_sin) refers (Special) to iusefp.o(.text) for __I$use$fp
    sin.o(i.__softfp_sin) refers to sin.o(i.__hardfp_sin) for __hardfp_sin
    sin.o(i.sin) refers (Special) to iusefp.o(.text) for __I$use$fp
    sin.o(i.sin) refers to sin.o(i.__hardfp_sin) for __hardfp_sin
    sin_x.o(i.____hardfp_sin$lsc) refers (Special) to iusefp.o(.text) for __I$use$fp
    sin_x.o(i.____hardfp_sin$lsc) refers to errno.o(i.__set_errno) for __set_errno
    sin_x.o(i.____hardfp_sin$lsc) refers to rred.o(i.__ieee754_rem_pio2) for __ieee754_rem_pio2
    sin_x.o(i.____hardfp_sin$lsc) refers to cos_i.o(i.__kernel_cos) for __kernel_cos
    sin_x.o(i.____hardfp_sin$lsc) refers to sin_i.o(i.__kernel_sin) for __kernel_sin
    sin_x.o(i.____softfp_sin$lsc) refers (Special) to iusefp.o(.text) for __I$use$fp
    sin_x.o(i.____softfp_sin$lsc) refers to sin_x.o(i.____hardfp_sin$lsc) for ____hardfp_sin$lsc
    sin_x.o(i.__sin$lsc) refers (Special) to iusefp.o(.text) for __I$use$fp
    sin_x.o(i.__sin$lsc) refers to sin_x.o(i.____hardfp_sin$lsc) for ____hardfp_sin$lsc
    sqrt.o(i.__hardfp_sqrt) refers (Special) to iusefp.o(.text) for __I$use$fp
    sqrt.o(i.__hardfp_sqrt) refers to errno.o(i.__set_errno) for __set_errno
    sqrt.o(i.__softfp_sqrt) refers (Special) to iusefp.o(.text) for __I$use$fp
    sqrt.o(i.__softfp_sqrt) refers to errno.o(i.__set_errno) for __set_errno
    sqrt.o(i.sqrt) refers (Special) to iusefp.o(.text) for __I$use$fp
    sqrt.o(i.sqrt) refers to errno.o(i.__set_errno) for __set_errno
    sqrt_x.o(i.____hardfp_sqrt$lsc) refers (Special) to iusefp.o(.text) for __I$use$fp
    sqrt_x.o(i.____hardfp_sqrt$lsc) refers to errno.o(i.__set_errno) for __set_errno
    sqrt_x.o(i.____softfp_sqrt$lsc) refers (Special) to iusefp.o(.text) for __I$use$fp
    sqrt_x.o(i.____softfp_sqrt$lsc) refers to errno.o(i.__set_errno) for __set_errno
    sqrt_x.o(i.__sqrt$lsc) refers (Special) to iusefp.o(.text) for __I$use$fp
    sqrt_x.o(i.__sqrt$lsc) refers to errno.o(i.__set_errno) for __set_errno
    sqrtf.o(i.__hardfp_sqrtf) refers (Special) to iusefp.o(.text) for __I$use$fp
    sqrtf.o(i.__hardfp_sqrtf) refers to errno.o(i.__set_errno) for __set_errno
    sqrtf.o(i.__softfp_sqrtf) refers (Special) to iusefp.o(.text) for __I$use$fp
    sqrtf.o(i.__softfp_sqrtf) refers to errno.o(i.__set_errno) for __set_errno
    sqrtf.o(i.sqrtf) refers (Special) to iusefp.o(.text) for __I$use$fp
    sqrtf.o(i.sqrtf) refers to errno.o(i.__set_errno) for __set_errno
    sqrtf_x.o(i.____hardfp_sqrtf$lsc) refers (Special) to iusefp.o(.text) for __I$use$fp
    sqrtf_x.o(i.____hardfp_sqrtf$lsc) refers to errno.o(i.__set_errno) for __set_errno
    sqrtf_x.o(i.____softfp_sqrtf$lsc) refers (Special) to iusefp.o(.text) for __I$use$fp
    sqrtf_x.o(i.____softfp_sqrtf$lsc) refers to errno.o(i.__set_errno) for __set_errno
    sqrtf_x.o(i.__sqrtf$lsc) refers (Special) to iusefp.o(.text) for __I$use$fp
    sqrtf_x.o(i.__sqrtf$lsc) refers to errno.o(i.__set_errno) for __set_errno
    entry.o(.ARM.Collect$$$$00000000) refers (Special) to entry10a.o(.ARM.Collect$$$$0000000D) for __rt_final_cpp
    entry.o(.ARM.Collect$$$$00000000) refers (Special) to entry11a.o(.ARM.Collect$$$$0000000F) for __rt_final_exit
    entry.o(.ARM.Collect$$$$00000000) refers (Special) to entry7b.o(.ARM.Collect$$$$00000008) for _main_clock
    entry.o(.ARM.Collect$$$$00000000) refers (Special) to entry8b.o(.ARM.Collect$$$$0000000A) for _main_cpp_init
    entry.o(.ARM.Collect$$$$00000000) refers (Special) to entry9a.o(.ARM.Collect$$$$0000000B) for _main_init
    entry.o(.ARM.Collect$$$$00000000) refers (Special) to entry5.o(.ARM.Collect$$$$00000004) for _main_scatterload
    entry.o(.ARM.Collect$$$$00000000) refers (Special) to entry2.o(.ARM.Collect$$$$00000001) for _main_stk
    atan.o(i.__hardfp_atan) refers (Special) to iusefp.o(.text) for __I$use$fp
    atan.o(i.__hardfp_atan) refers to dunder.o(i.__mathlib_dbl_infnan) for __mathlib_dbl_infnan
    atan.o(i.__hardfp_atan) refers to fpclassify.o(i.__ARM_fpclassify) for __ARM_fpclassify
    atan.o(i.__hardfp_atan) refers to dunder.o(i.__mathlib_dbl_underflow) for __mathlib_dbl_underflow
    atan.o(i.__hardfp_atan) refers to fabs.o(i.fabs) for fabs
    atan.o(i.__hardfp_atan) refers to poly.o(i.__kernel_poly) for __kernel_poly
    atan.o(i.__hardfp_atan) refers to atan.o(.constdata) for .constdata
    atan.o(i.__softfp_atan) refers (Special) to iusefp.o(.text) for __I$use$fp
    atan.o(i.__softfp_atan) refers to atan.o(i.__hardfp_atan) for __hardfp_atan
    atan.o(i.atan) refers (Special) to iusefp.o(.text) for __I$use$fp
    atan.o(i.atan) refers to atan.o(i.__hardfp_atan) for __hardfp_atan
    atan.o(.constdata) refers (Special) to iusefp.o(.text) for __I$use$fp
    atan_x.o(i.____hardfp_atan$lsc) refers (Special) to iusefp.o(.text) for __I$use$fp
    atan_x.o(i.____hardfp_atan$lsc) refers to dunder.o(i.__mathlib_dbl_infnan) for __mathlib_dbl_infnan
    atan_x.o(i.____hardfp_atan$lsc) refers to fabs.o(i.fabs) for fabs
    atan_x.o(i.____hardfp_atan$lsc) refers to poly.o(i.__kernel_poly) for __kernel_poly
    atan_x.o(i.____hardfp_atan$lsc) refers to atan_x.o(.constdata) for .constdata
    atan_x.o(i.____softfp_atan$lsc) refers (Special) to iusefp.o(.text) for __I$use$fp
    atan_x.o(i.____softfp_atan$lsc) refers to atan_x.o(i.____hardfp_atan$lsc) for ____hardfp_atan$lsc
    atan_x.o(i.__atan$lsc) refers (Special) to iusefp.o(.text) for __I$use$fp
    atan_x.o(i.__atan$lsc) refers to atan_x.o(i.____hardfp_atan$lsc) for ____hardfp_atan$lsc
    atan_x.o(.constdata) refers (Special) to iusefp.o(.text) for __I$use$fp
    cos_i.o(i.__kernel_cos) refers (Special) to iusefp.o(.text) for __I$use$fp
    cos_i.o(i.__kernel_cos) refers to poly.o(i.__kernel_poly) for __kernel_poly
    cos_i.o(i.__kernel_cos) refers to cos_i.o(.constdata) for .constdata
    cos_i.o(.constdata) refers (Special) to iusefp.o(.text) for __I$use$fp
    fabs.o(i.__hardfp_fabs) refers (Special) to iusefp.o(.text) for __I$use$fp
    fabs.o(i.__softfp_fabs) refers (Special) to iusefp.o(.text) for __I$use$fp
    fabs.o(i.fabs) refers (Special) to iusefp.o(.text) for __I$use$fp
    fpclassifyf.o(i.__ARM_fpclassifyf) refers (Special) to iusefp.o(.text) for __I$use$fp
    qnan.o(.constdata) refers (Special) to iusefp.o(.text) for __I$use$fp
    rred.o(i.__ieee754_rem_pio2) refers (Special) to iusefp.o(.text) for __I$use$fp
    rred.o(i.__ieee754_rem_pio2) refers to fabs.o(i.fabs) for fabs
    rred.o(i.__ieee754_rem_pio2) refers to rred.o(.constdata) for .constdata
    rred.o(i.__use_accurate_range_reduction) refers (Special) to iusefp.o(.text) for __I$use$fp
    rred.o(.constdata) refers (Special) to iusefp.o(.text) for __I$use$fp
    sin_i.o(i.__kernel_sin) refers (Special) to iusefp.o(.text) for __I$use$fp
    sin_i.o(i.__kernel_sin) refers to fpclassify.o(i.__ARM_fpclassify) for __ARM_fpclassify
    sin_i.o(i.__kernel_sin) refers to dunder.o(i.__mathlib_dbl_underflow) for __mathlib_dbl_underflow
    sin_i.o(i.__kernel_sin) refers to poly.o(i.__kernel_poly) for __kernel_poly
    sin_i.o(i.__kernel_sin) refers to sin_i.o(.constdata) for .constdata
    sin_i.o(.constdata) refers (Special) to iusefp.o(.text) for __I$use$fp
    sin_i_x.o(i.____kernel_sin$lsc) refers (Special) to iusefp.o(.text) for __I$use$fp
    sin_i_x.o(i.____kernel_sin$lsc) refers to poly.o(i.__kernel_poly) for __kernel_poly
    sin_i_x.o(i.____kernel_sin$lsc) refers to sin_i_x.o(.constdata) for .constdata
    sin_i_x.o(.constdata) refers (Special) to iusefp.o(.text) for __I$use$fp
    entry2.o(.ARM.Collect$$$$00000001) refers to entry2.o(.ARM.Collect$$$$00002712) for __lit__00000000
    entry2.o(.ARM.Collect$$$$00002712) refers to startup_stm32f767xx.o(STACK) for __initial_sp
    entry2.o(__vectab_stack_and_reset_area) refers to startup_stm32f767xx.o(STACK) for __initial_sp
    entry2.o(__vectab_stack_and_reset_area) refers to entry.o(.ARM.Collect$$$$00000000) for __main
    entry5.o(.ARM.Collect$$$$00000004) refers to init.o(.text) for __scatterload
    entry9a.o(.ARM.Collect$$$$0000000B) refers to main.o(i.main) for main
    entry9b.o(.ARM.Collect$$$$0000000C) refers to main.o(i.main) for main
    errno.o(i.__aeabi_errno_addr) refers to errno.o(.data) for .data
    errno.o(i.__read_errno) refers to errno.o(.data) for .data
    errno.o(i.__set_errno) refers to errno.o(.data) for .data
    fpclassify.o(i.__ARM_fpclassify) refers (Special) to iusefp.o(.text) for __I$use$fp
    poly.o(i.__kernel_poly) refers (Special) to iusefp.o(.text) for __I$use$fp
    init.o(.text) refers to entry5.o(.ARM.Collect$$$$00000004) for __main_after_scatterload


==============================================================================

Removing Unused input sections from the image.

    Removing tim.o(.rev16_text), (4 bytes).
    Removing tim.o(.revsh_text), (4 bytes).
    Removing tim.o(.rrx_text), (6 bytes).
    Removing tim.o(i.HAL_TIM_Base_MspDeInit), (60 bytes).
    Removing rtc.o(.rev16_text), (4 bytes).
    Removing rtc.o(.revsh_text), (4 bytes).
    Removing rtc.o(.rrx_text), (6 bytes).
    Removing rtc.o(i.HAL_RTC_MspDeInit), (32 bytes).
    Removing quadspi.o(.rev16_text), (4 bytes).
    Removing quadspi.o(.revsh_text), (4 bytes).
    Removing quadspi.o(.rrx_text), (6 bytes).
    Removing quadspi.o(i.HAL_QSPI_MspDeInit), (60 bytes).
    Removing dma.o(.rev16_text), (4 bytes).
    Removing dma.o(.revsh_text), (4 bytes).
    Removing dma.o(.rrx_text), (6 bytes).
    Removing stm32f7xx_hal_msp.o(.rev16_text), (4 bytes).
    Removing stm32f7xx_hal_msp.o(.revsh_text), (4 bytes).
    Removing stm32f7xx_hal_msp.o(.rrx_text), (6 bytes).
    Removing stm32f7xx_it.o(.rev16_text), (4 bytes).
    Removing stm32f7xx_it.o(.revsh_text), (4 bytes).
    Removing stm32f7xx_it.o(.rrx_text), (6 bytes).
    Removing adc.o(.rev16_text), (4 bytes).
    Removing adc.o(.revsh_text), (4 bytes).
    Removing adc.o(.rrx_text), (6 bytes).
    Removing adc.o(i.HAL_ADC_MspDeInit), (156 bytes).
    Removing main.o(.rev16_text), (4 bytes).
    Removing main.o(.revsh_text), (4 bytes).
    Removing main.o(.rrx_text), (6 bytes).
    Removing gpio.o(.rev16_text), (4 bytes).
    Removing gpio.o(.revsh_text), (4 bytes).
    Removing gpio.o(.rrx_text), (6 bytes).
    Removing usart.o(.rev16_text), (4 bytes).
    Removing usart.o(.revsh_text), (4 bytes).
    Removing usart.o(.rrx_text), (6 bytes).
    Removing usart.o(i.HAL_UART_MspDeInit), (52 bytes).
    Removing spi.o(.rev16_text), (4 bytes).
    Removing spi.o(.revsh_text), (4 bytes).
    Removing spi.o(.rrx_text), (6 bytes).
    Removing spi.o(i.HAL_SPI_MspDeInit), (56 bytes).
    Removing measurement_functions.o(i.pvp_post_filter), (178 bytes).
    Removing measurement_functions.o(i.signal_spectra), (164 bytes).
    Removing measurement_functions.o(i.signal_thd), (104 bytes).
    Removing protection_functions.o(i.minSelector_3p), (10 bytes).
    Removing startup_stm32f767xx.o(HEAP), (512 bytes).
    Removing stm32f7xx_hal_adc.o(.rev16_text), (4 bytes).
    Removing stm32f7xx_hal_adc.o(.revsh_text), (4 bytes).
    Removing stm32f7xx_hal_adc.o(.rrx_text), (6 bytes).
    Removing stm32f7xx_hal_adc.o(i.ADC_DMAConvCplt), (104 bytes).
    Removing stm32f7xx_hal_adc.o(i.ADC_DMAError), (22 bytes).
    Removing stm32f7xx_hal_adc.o(i.ADC_DMAHalfConvCplt), (10 bytes).
    Removing stm32f7xx_hal_adc.o(i.HAL_ADC_AnalogWDGConfig), (142 bytes).
    Removing stm32f7xx_hal_adc.o(i.HAL_ADC_ConvCpltCallback), (2 bytes).
    Removing stm32f7xx_hal_adc.o(i.HAL_ADC_DeInit), (60 bytes).
    Removing stm32f7xx_hal_adc.o(i.HAL_ADC_GetError), (4 bytes).
    Removing stm32f7xx_hal_adc.o(i.HAL_ADC_GetState), (4 bytes).
    Removing stm32f7xx_hal_adc.o(i.HAL_ADC_GetValue), (6 bytes).
    Removing stm32f7xx_hal_adc.o(i.HAL_ADC_IRQHandler), (342 bytes).
    Removing stm32f7xx_hal_adc.o(i.HAL_ADC_LevelOutOfWindowCallback), (2 bytes).
    Removing stm32f7xx_hal_adc.o(i.HAL_ADC_MspDeInit), (2 bytes).
    Removing stm32f7xx_hal_adc.o(i.HAL_ADC_MspInit), (2 bytes).
    Removing stm32f7xx_hal_adc.o(i.HAL_ADC_PollForConversion), (188 bytes).
    Removing stm32f7xx_hal_adc.o(i.HAL_ADC_PollForEvent), (126 bytes).
    Removing stm32f7xx_hal_adc.o(i.HAL_ADC_Start_DMA), (364 bytes).
    Removing stm32f7xx_hal_adc.o(i.HAL_ADC_Start_IT), (288 bytes).
    Removing stm32f7xx_hal_adc.o(i.HAL_ADC_Stop), (60 bytes).
    Removing stm32f7xx_hal_adc.o(i.HAL_ADC_Stop_DMA), (88 bytes).
    Removing stm32f7xx_hal_adc.o(i.HAL_ADC_Stop_IT), (72 bytes).
    Removing stm32f7xx_hal_rtc.o(.rev16_text), (4 bytes).
    Removing stm32f7xx_hal_rtc.o(.revsh_text), (4 bytes).
    Removing stm32f7xx_hal_rtc.o(.rrx_text), (6 bytes).
    Removing stm32f7xx_hal_rtc.o(i.HAL_RTC_AlarmAEventCallback), (2 bytes).
    Removing stm32f7xx_hal_rtc.o(i.HAL_RTC_AlarmIRQHandler), (100 bytes).
    Removing stm32f7xx_hal_rtc.o(i.HAL_RTC_DeInit), (312 bytes).
    Removing stm32f7xx_hal_rtc.o(i.HAL_RTC_DeactivateAlarm), (206 bytes).
    Removing stm32f7xx_hal_rtc.o(i.HAL_RTC_GetAlarm), (174 bytes).
    Removing stm32f7xx_hal_rtc.o(i.HAL_RTC_GetDate), (104 bytes).
    Removing stm32f7xx_hal_rtc.o(i.HAL_RTC_GetState), (4 bytes).
    Removing stm32f7xx_hal_rtc.o(i.HAL_RTC_GetTime), (128 bytes).
    Removing stm32f7xx_hal_rtc.o(i.HAL_RTC_MspDeInit), (2 bytes).
    Removing stm32f7xx_hal_rtc.o(i.HAL_RTC_MspInit), (2 bytes).
    Removing stm32f7xx_hal_rtc.o(i.HAL_RTC_PollForAlarmAEvent), (80 bytes).
    Removing stm32f7xx_hal_rtc.o(i.HAL_RTC_SetAlarm), (388 bytes).
    Removing stm32f7xx_hal_rtc.o(i.HAL_RTC_SetAlarm_IT), (444 bytes).
    Removing stm32f7xx_hal_rtc.o(i.HAL_RTC_SetDate), (294 bytes).
    Removing stm32f7xx_hal_rtc.o(i.HAL_RTC_SetTime), (332 bytes).
    Removing stm32f7xx_hal_rtc.o(i.HAL_RTC_WaitForSynchro), (62 bytes).
    Removing stm32f7xx_hal_rtc.o(i.RTC_Bcd2ToByte), (18 bytes).
    Removing stm32f7xx_hal_rtc.o(i.RTC_ByteToBcd2), (50 bytes).
    Removing stm32f7xx_hal_rtc.o(i.RTC_EnterInitMode), (66 bytes).
    Removing stm32f7xx_hal_flash.o(.rev16_text), (4 bytes).
    Removing stm32f7xx_hal_flash.o(.revsh_text), (4 bytes).
    Removing stm32f7xx_hal_flash.o(.rrx_text), (6 bytes).
    Removing stm32f7xx_hal_flash.o(i.FLASH_WaitForLastOperation), (184 bytes).
    Removing stm32f7xx_hal_flash.o(i.HAL_FLASH_EndOfOperationCallback), (2 bytes).
    Removing stm32f7xx_hal_flash.o(i.HAL_FLASH_GetError), (12 bytes).
    Removing stm32f7xx_hal_flash.o(i.HAL_FLASH_IRQHandler), (320 bytes).
    Removing stm32f7xx_hal_flash.o(i.HAL_FLASH_Lock), (20 bytes).
    Removing stm32f7xx_hal_flash.o(i.HAL_FLASH_OB_Launch), (24 bytes).
    Removing stm32f7xx_hal_flash.o(i.HAL_FLASH_OB_Lock), (20 bytes).
    Removing stm32f7xx_hal_flash.o(i.HAL_FLASH_OB_Unlock), (44 bytes).
    Removing stm32f7xx_hal_flash.o(i.HAL_FLASH_OperationErrorCallback), (2 bytes).
    Removing stm32f7xx_hal_flash.o(i.HAL_FLASH_Program), (220 bytes).
    Removing stm32f7xx_hal_flash.o(i.HAL_FLASH_Program_IT), (284 bytes).
    Removing stm32f7xx_hal_flash.o(i.HAL_FLASH_Unlock), (44 bytes).
    Removing stm32f7xx_hal_flash.o(.bss), (28 bytes).
    Removing stm32f7xx_hal_cortex.o(.rev16_text), (4 bytes).
    Removing stm32f7xx_hal_cortex.o(.revsh_text), (4 bytes).
    Removing stm32f7xx_hal_cortex.o(.rrx_text), (6 bytes).
    Removing stm32f7xx_hal_cortex.o(i.HAL_MPU_ConfigRegion), (96 bytes).
    Removing stm32f7xx_hal_cortex.o(i.HAL_MPU_Disable), (32 bytes).
    Removing stm32f7xx_hal_cortex.o(i.HAL_MPU_Enable), (36 bytes).
    Removing stm32f7xx_hal_cortex.o(i.HAL_NVIC_ClearPendingIRQ), (24 bytes).
    Removing stm32f7xx_hal_cortex.o(i.HAL_NVIC_DisableIRQ), (24 bytes).
    Removing stm32f7xx_hal_cortex.o(i.HAL_NVIC_GetActive), (30 bytes).
    Removing stm32f7xx_hal_cortex.o(i.HAL_NVIC_GetPendingIRQ), (30 bytes).
    Removing stm32f7xx_hal_cortex.o(i.HAL_NVIC_GetPriority), (92 bytes).
    Removing stm32f7xx_hal_cortex.o(i.HAL_NVIC_GetPriorityGrouping), (16 bytes).
    Removing stm32f7xx_hal_cortex.o(i.HAL_NVIC_SetPendingIRQ), (24 bytes).
    Removing stm32f7xx_hal_cortex.o(i.HAL_NVIC_SystemReset), (36 bytes).
    Removing stm32f7xx_hal_gpio.o(.rev16_text), (4 bytes).
    Removing stm32f7xx_hal_gpio.o(.revsh_text), (4 bytes).
    Removing stm32f7xx_hal_gpio.o(.rrx_text), (6 bytes).
    Removing stm32f7xx_hal_gpio.o(i.HAL_GPIO_DeInit), (372 bytes).
    Removing stm32f7xx_hal_gpio.o(i.HAL_GPIO_EXTI_Callback), (2 bytes).
    Removing stm32f7xx_hal_gpio.o(i.HAL_GPIO_LockPin), (36 bytes).
    Removing stm32f7xx_hal_gpio.o(i.HAL_GPIO_TogglePin), (8 bytes).
    Removing stm32f7xx_hal_tim.o(.rev16_text), (4 bytes).
    Removing stm32f7xx_hal_tim.o(.revsh_text), (4 bytes).
    Removing stm32f7xx_hal_tim.o(.rrx_text), (6 bytes).
    Removing stm32f7xx_hal_tim.o(i.HAL_TIM_Base_DeInit), (58 bytes).
    Removing stm32f7xx_hal_tim.o(i.HAL_TIM_Base_GetState), (6 bytes).
    Removing stm32f7xx_hal_tim.o(i.HAL_TIM_Base_MspDeInit), (2 bytes).
    Removing stm32f7xx_hal_tim.o(i.HAL_TIM_Base_MspInit), (2 bytes).
    Removing stm32f7xx_hal_tim.o(i.HAL_TIM_Base_Start), (26 bytes).
    Removing stm32f7xx_hal_tim.o(i.HAL_TIM_Base_Start_DMA), (100 bytes).
    Removing stm32f7xx_hal_tim.o(i.HAL_TIM_Base_Stop), (46 bytes).
    Removing stm32f7xx_hal_tim.o(i.HAL_TIM_Base_Stop_DMA), (50 bytes).
    Removing stm32f7xx_hal_tim.o(i.HAL_TIM_Base_Stop_IT), (42 bytes).
    Removing stm32f7xx_hal_tim.o(i.HAL_TIM_ConfigOCrefClear), (176 bytes).
    Removing stm32f7xx_hal_tim.o(i.HAL_TIM_ConfigTI1Input), (16 bytes).
    Removing stm32f7xx_hal_tim.o(i.HAL_TIM_DMABurst_ReadStart), (320 bytes).
    Removing stm32f7xx_hal_tim.o(i.HAL_TIM_DMABurst_ReadStop), (100 bytes).
    Removing stm32f7xx_hal_tim.o(i.HAL_TIM_DMABurst_WriteStart), (332 bytes).
    Removing stm32f7xx_hal_tim.o(i.HAL_TIM_DMABurst_WriteStop), (100 bytes).
    Removing stm32f7xx_hal_tim.o(i.HAL_TIM_Encoder_DeInit), (58 bytes).
    Removing stm32f7xx_hal_tim.o(i.HAL_TIM_Encoder_GetState), (6 bytes).
    Removing stm32f7xx_hal_tim.o(i.HAL_TIM_Encoder_Init), (180 bytes).
    Removing stm32f7xx_hal_tim.o(i.HAL_TIM_Encoder_MspDeInit), (2 bytes).
    Removing stm32f7xx_hal_tim.o(i.HAL_TIM_Encoder_MspInit), (2 bytes).
    Removing stm32f7xx_hal_tim.o(i.HAL_TIM_Encoder_Start), (88 bytes).
    Removing stm32f7xx_hal_tim.o(i.HAL_TIM_Encoder_Start_DMA), (316 bytes).
    Removing stm32f7xx_hal_tim.o(i.HAL_TIM_Encoder_Start_IT), (128 bytes).
    Removing stm32f7xx_hal_tim.o(i.HAL_TIM_Encoder_Stop), (94 bytes).
    Removing stm32f7xx_hal_tim.o(i.HAL_TIM_Encoder_Stop_DMA), (150 bytes).
    Removing stm32f7xx_hal_tim.o(i.HAL_TIM_Encoder_Stop_IT), (150 bytes).
    Removing stm32f7xx_hal_tim.o(i.HAL_TIM_ErrorCallback), (2 bytes).
    Removing stm32f7xx_hal_tim.o(i.HAL_TIM_GenerateEvent), (42 bytes).
    Removing stm32f7xx_hal_tim.o(i.HAL_TIM_IC_ConfigChannel), (466 bytes).
    Removing stm32f7xx_hal_tim.o(i.HAL_TIM_IC_DeInit), (58 bytes).
    Removing stm32f7xx_hal_tim.o(i.HAL_TIM_IC_GetState), (6 bytes).
    Removing stm32f7xx_hal_tim.o(i.HAL_TIM_IC_Init), (54 bytes).
    Removing stm32f7xx_hal_tim.o(i.HAL_TIM_IC_MspDeInit), (2 bytes).
    Removing stm32f7xx_hal_tim.o(i.HAL_TIM_IC_MspInit), (2 bytes).
    Removing stm32f7xx_hal_tim.o(i.HAL_TIM_IC_Start), (34 bytes).
    Removing stm32f7xx_hal_tim.o(i.HAL_TIM_IC_Start_DMA), (228 bytes).
    Removing stm32f7xx_hal_tim.o(i.HAL_TIM_IC_Start_IT), (86 bytes).
    Removing stm32f7xx_hal_tim.o(i.HAL_TIM_IC_Stop), (74 bytes).
    Removing stm32f7xx_hal_tim.o(i.HAL_TIM_IC_Stop_DMA), (134 bytes).
    Removing stm32f7xx_hal_tim.o(i.HAL_TIM_IC_Stop_IT), (126 bytes).
    Removing stm32f7xx_hal_tim.o(i.HAL_TIM_OC_ConfigChannel), (432 bytes).
    Removing stm32f7xx_hal_tim.o(i.HAL_TIM_OC_DeInit), (58 bytes).
    Removing stm32f7xx_hal_tim.o(i.HAL_TIM_OC_GetState), (6 bytes).
    Removing stm32f7xx_hal_tim.o(i.HAL_TIM_OC_Init), (54 bytes).
    Removing stm32f7xx_hal_tim.o(i.HAL_TIM_OC_MspDeInit), (2 bytes).
    Removing stm32f7xx_hal_tim.o(i.HAL_TIM_OC_MspInit), (2 bytes).
    Removing stm32f7xx_hal_tim.o(i.HAL_TIM_OC_Start), (64 bytes).
    Removing stm32f7xx_hal_tim.o(i.HAL_TIM_OC_Start_DMA), (264 bytes).
    Removing stm32f7xx_hal_tim.o(i.HAL_TIM_OC_Start_IT), (116 bytes).
    Removing stm32f7xx_hal_tim.o(i.HAL_TIM_OC_Stop), (122 bytes).
    Removing stm32f7xx_hal_tim.o(i.HAL_TIM_OC_Stop_DMA), (176 bytes).
    Removing stm32f7xx_hal_tim.o(i.HAL_TIM_OC_Stop_IT), (174 bytes).
    Removing stm32f7xx_hal_tim.o(i.HAL_TIM_OnePulse_ConfigChannel), (584 bytes).
    Removing stm32f7xx_hal_tim.o(i.HAL_TIM_OnePulse_DeInit), (58 bytes).
    Removing stm32f7xx_hal_tim.o(i.HAL_TIM_OnePulse_GetState), (6 bytes).
    Removing stm32f7xx_hal_tim.o(i.HAL_TIM_OnePulse_Init), (74 bytes).
    Removing stm32f7xx_hal_tim.o(i.HAL_TIM_OnePulse_MspDeInit), (2 bytes).
    Removing stm32f7xx_hal_tim.o(i.HAL_TIM_OnePulse_MspInit), (2 bytes).
    Removing stm32f7xx_hal_tim.o(i.HAL_TIM_OnePulse_Start), (70 bytes).
    Removing stm32f7xx_hal_tim.o(i.HAL_TIM_OnePulse_Start_IT), (90 bytes).
    Removing stm32f7xx_hal_tim.o(i.HAL_TIM_OnePulse_Stop), (114 bytes).
    Removing stm32f7xx_hal_tim.o(i.HAL_TIM_OnePulse_Stop_IT), (134 bytes).
    Removing stm32f7xx_hal_tim.o(i.HAL_TIM_PWM_ConfigChannel), (564 bytes).
    Removing stm32f7xx_hal_tim.o(i.HAL_TIM_PWM_DeInit), (58 bytes).
    Removing stm32f7xx_hal_tim.o(i.HAL_TIM_PWM_GetState), (6 bytes).
    Removing stm32f7xx_hal_tim.o(i.HAL_TIM_PWM_Init), (54 bytes).
    Removing stm32f7xx_hal_tim.o(i.HAL_TIM_PWM_MspDeInit), (2 bytes).
    Removing stm32f7xx_hal_tim.o(i.HAL_TIM_PWM_MspInit), (2 bytes).
    Removing stm32f7xx_hal_tim.o(i.HAL_TIM_PWM_Start), (64 bytes).
    Removing stm32f7xx_hal_tim.o(i.HAL_TIM_PWM_Start_DMA), (264 bytes).
    Removing stm32f7xx_hal_tim.o(i.HAL_TIM_PWM_Start_IT), (116 bytes).
    Removing stm32f7xx_hal_tim.o(i.HAL_TIM_PWM_Stop), (124 bytes).
    Removing stm32f7xx_hal_tim.o(i.HAL_TIM_PWM_Stop_DMA), (176 bytes).
    Removing stm32f7xx_hal_tim.o(i.HAL_TIM_PWM_Stop_IT), (174 bytes).
    Removing stm32f7xx_hal_tim.o(i.HAL_TIM_ReadCapturedValue), (68 bytes).
    Removing stm32f7xx_hal_tim.o(i.HAL_TIM_SlaveConfigSynchronization), (258 bytes).
    Removing stm32f7xx_hal_tim.o(i.HAL_TIM_SlaveConfigSynchronization_IT), (282 bytes).
    Removing stm32f7xx_hal_tim.o(i.TIM_CCxChannelCmd), (26 bytes).
    Removing stm32f7xx_hal_tim.o(i.TIM_DMACaptureCplt), (66 bytes).
    Removing stm32f7xx_hal_tim.o(i.TIM_DMADelayPulseCplt), (66 bytes).
    Removing stm32f7xx_hal_tim.o(i.TIM_DMAError), (16 bytes).
    Removing stm32f7xx_hal_tim.o(i.TIM_DMAPeriodElapsedCplt), (16 bytes).
    Removing stm32f7xx_hal_tim.o(i.TIM_DMATriggerCplt), (16 bytes).
    Removing stm32f7xx_hal_tim.o(i.TIM_ETR_SetConfig), (18 bytes).
    Removing stm32f7xx_hal_tim.o(i.TIM_OC1_SetConfig), (102 bytes).
    Removing stm32f7xx_hal_tim.o(i.TIM_OC2_SetConfig), (108 bytes).
    Removing stm32f7xx_hal_tim.o(i.TIM_OC3_SetConfig), (108 bytes).
    Removing stm32f7xx_hal_tim.o(i.TIM_OC4_SetConfig), (88 bytes).
    Removing stm32f7xx_hal_tim.o(i.TIM_TI1_SetConfig), (144 bytes).
    Removing stm32f7xx_hal_adc_ex.o(.rev16_text), (4 bytes).
    Removing stm32f7xx_hal_adc_ex.o(.revsh_text), (4 bytes).
    Removing stm32f7xx_hal_adc_ex.o(.rrx_text), (6 bytes).
    Removing stm32f7xx_hal_adc_ex.o(i.HAL_ADCEx_InjectedConfigChannel), (520 bytes).
    Removing stm32f7xx_hal_adc_ex.o(i.HAL_ADCEx_InjectedConvCpltCallback), (2 bytes).
    Removing stm32f7xx_hal_adc_ex.o(i.HAL_ADCEx_InjectedGetValue), (68 bytes).
    Removing stm32f7xx_hal_adc_ex.o(i.HAL_ADCEx_InjectedPollForConversion), (156 bytes).
    Removing stm32f7xx_hal_adc_ex.o(i.HAL_ADCEx_InjectedStart), (288 bytes).
    Removing stm32f7xx_hal_adc_ex.o(i.HAL_ADCEx_InjectedStart_IT), (296 bytes).
    Removing stm32f7xx_hal_adc_ex.o(i.HAL_ADCEx_InjectedStop), (88 bytes).
    Removing stm32f7xx_hal_adc_ex.o(i.HAL_ADCEx_InjectedStop_IT), (96 bytes).
    Removing stm32f7xx_hal_adc_ex.o(i.HAL_ADCEx_MultiModeGetValue), (12 bytes).
    Removing stm32f7xx_hal_adc_ex.o(i.HAL_ADCEx_MultiModeStop_DMA), (100 bytes).
    Removing stm32f7xx_hal_pwr_ex.o(.rev16_text), (4 bytes).
    Removing stm32f7xx_hal_pwr_ex.o(.revsh_text), (4 bytes).
    Removing stm32f7xx_hal_pwr_ex.o(.rrx_text), (6 bytes).
    Removing stm32f7xx_hal_pwr_ex.o(i.HAL_PWREx_ControlVoltageScaling), (200 bytes).
    Removing stm32f7xx_hal_pwr_ex.o(i.HAL_PWREx_DisableBkUpReg), (68 bytes).
    Removing stm32f7xx_hal_pwr_ex.o(i.HAL_PWREx_DisableFlashPowerDown), (16 bytes).
    Removing stm32f7xx_hal_pwr_ex.o(i.HAL_PWREx_DisableLowRegulatorLowVoltage), (16 bytes).
    Removing stm32f7xx_hal_pwr_ex.o(i.HAL_PWREx_DisableMainRegulatorLowVoltage), (16 bytes).
    Removing stm32f7xx_hal_pwr_ex.o(i.HAL_PWREx_DisableOverDrive), (124 bytes).
    Removing stm32f7xx_hal_pwr_ex.o(i.HAL_PWREx_EnableBkUpReg), (68 bytes).
    Removing stm32f7xx_hal_pwr_ex.o(i.HAL_PWREx_EnableFlashPowerDown), (16 bytes).
    Removing stm32f7xx_hal_pwr_ex.o(i.HAL_PWREx_EnableLowRegulatorLowVoltage), (16 bytes).
    Removing stm32f7xx_hal_pwr_ex.o(i.HAL_PWREx_EnableMainRegulatorLowVoltage), (16 bytes).
    Removing stm32f7xx_hal_pwr_ex.o(i.HAL_PWREx_EnterUnderDriveSTOPMode), (152 bytes).
    Removing stm32f7xx_hal_pwr_ex.o(i.HAL_PWREx_GetVoltageRange), (16 bytes).
    Removing stm32f7xx_hal.o(.rev16_text), (4 bytes).
    Removing stm32f7xx_hal.o(.revsh_text), (4 bytes).
    Removing stm32f7xx_hal.o(.rrx_text), (6 bytes).
    Removing stm32f7xx_hal.o(i.HAL_DBGMCU_DisableDBGSleepMode), (16 bytes).
    Removing stm32f7xx_hal.o(i.HAL_DBGMCU_DisableDBGStandbyMode), (16 bytes).
    Removing stm32f7xx_hal.o(i.HAL_DBGMCU_DisableDBGStopMode), (16 bytes).
    Removing stm32f7xx_hal.o(i.HAL_DBGMCU_EnableDBGSleepMode), (16 bytes).
    Removing stm32f7xx_hal.o(i.HAL_DBGMCU_EnableDBGStandbyMode), (16 bytes).
    Removing stm32f7xx_hal.o(i.HAL_DBGMCU_EnableDBGStopMode), (16 bytes).
    Removing stm32f7xx_hal.o(i.HAL_DeInit), (64 bytes).
    Removing stm32f7xx_hal.o(i.HAL_Delay), (22 bytes).
    Removing stm32f7xx_hal.o(i.HAL_DisableCompensationCell), (16 bytes).
    Removing stm32f7xx_hal.o(i.HAL_DisableFMCMemorySwapping), (16 bytes).
    Removing stm32f7xx_hal.o(i.HAL_DisableMemorySwappingBank), (16 bytes).
    Removing stm32f7xx_hal.o(i.HAL_EnableCompensationCell), (16 bytes).
    Removing stm32f7xx_hal.o(i.HAL_EnableFMCMemorySwapping), (16 bytes).
    Removing stm32f7xx_hal.o(i.HAL_EnableMemorySwappingBank), (16 bytes).
    Removing stm32f7xx_hal.o(i.HAL_GetDEVID), (16 bytes).
    Removing stm32f7xx_hal.o(i.HAL_GetHalVersion), (8 bytes).
    Removing stm32f7xx_hal.o(i.HAL_GetREVID), (12 bytes).
    Removing stm32f7xx_hal.o(i.HAL_GetUIDw0), (12 bytes).
    Removing stm32f7xx_hal.o(i.HAL_GetUIDw1), (12 bytes).
    Removing stm32f7xx_hal.o(i.HAL_GetUIDw2), (12 bytes).
    Removing stm32f7xx_hal.o(i.HAL_MspDeInit), (2 bytes).
    Removing stm32f7xx_hal.o(i.HAL_MspInit), (2 bytes).
    Removing stm32f7xx_hal.o(i.HAL_ResumeTick), (14 bytes).
    Removing stm32f7xx_hal.o(i.HAL_SuspendTick), (14 bytes).
    Removing stm32f7xx_hal_dma.o(.rev16_text), (4 bytes).
    Removing stm32f7xx_hal_dma.o(.revsh_text), (4 bytes).
    Removing stm32f7xx_hal_dma.o(.rrx_text), (6 bytes).
    Removing stm32f7xx_hal_dma.o(i.HAL_DMA_Abort), (166 bytes).
    Removing stm32f7xx_hal_dma.o(i.HAL_DMA_DeInit), (136 bytes).
    Removing stm32f7xx_hal_dma.o(i.HAL_DMA_GetError), (4 bytes).
    Removing stm32f7xx_hal_dma.o(i.HAL_DMA_GetState), (6 bytes).
    Removing stm32f7xx_hal_dma.o(i.HAL_DMA_PollForTransfer), (472 bytes).
    Removing stm32f7xx_hal_dma.o(i.HAL_DMA_RegisterCallback), (92 bytes).
    Removing stm32f7xx_hal_dma.o(i.HAL_DMA_Start), (108 bytes).
    Removing stm32f7xx_hal_dma.o(i.HAL_DMA_UnRegisterCallback), (104 bytes).
    Removing stm32f7xx_hal_pwr.o(.rev16_text), (4 bytes).
    Removing stm32f7xx_hal_pwr.o(.revsh_text), (4 bytes).
    Removing stm32f7xx_hal_pwr.o(.rrx_text), (6 bytes).
    Removing stm32f7xx_hal_pwr.o(i.HAL_PWR_ConfigPVD), (160 bytes).
    Removing stm32f7xx_hal_pwr.o(i.HAL_PWR_DeInit), (24 bytes).
    Removing stm32f7xx_hal_pwr.o(i.HAL_PWR_DisableBkUpAccess), (16 bytes).
    Removing stm32f7xx_hal_pwr.o(i.HAL_PWR_DisablePVD), (16 bytes).
    Removing stm32f7xx_hal_pwr.o(i.HAL_PWR_DisableSEVOnPend), (16 bytes).
    Removing stm32f7xx_hal_pwr.o(i.HAL_PWR_DisableSleepOnExit), (16 bytes).
    Removing stm32f7xx_hal_pwr.o(i.HAL_PWR_DisableWakeUpPin), (16 bytes).
    Removing stm32f7xx_hal_pwr.o(i.HAL_PWR_EnableBkUpAccess), (16 bytes).
    Removing stm32f7xx_hal_pwr.o(i.HAL_PWR_EnablePVD), (16 bytes).
    Removing stm32f7xx_hal_pwr.o(i.HAL_PWR_EnableSEVOnPend), (16 bytes).
    Removing stm32f7xx_hal_pwr.o(i.HAL_PWR_EnableSleepOnExit), (16 bytes).
    Removing stm32f7xx_hal_pwr.o(i.HAL_PWR_EnableWakeUpPin), (32 bytes).
    Removing stm32f7xx_hal_pwr.o(i.HAL_PWR_EnterSLEEPMode), (28 bytes).
    Removing stm32f7xx_hal_pwr.o(i.HAL_PWR_EnterSTANDBYMode), (32 bytes).
    Removing stm32f7xx_hal_pwr.o(i.HAL_PWR_EnterSTOPMode), (60 bytes).
    Removing stm32f7xx_hal_pwr.o(i.HAL_PWR_PVDCallback), (2 bytes).
    Removing stm32f7xx_hal_pwr.o(i.HAL_PWR_PVD_IRQHandler), (32 bytes).
    Removing stm32f7xx_hal_rcc_ex.o(.rev16_text), (4 bytes).
    Removing stm32f7xx_hal_rcc_ex.o(.revsh_text), (4 bytes).
    Removing stm32f7xx_hal_rcc_ex.o(.rrx_text), (6 bytes).
    Removing stm32f7xx_hal_rcc_ex.o(i.HAL_RCCEx_GetPeriphCLKConfig), (440 bytes).
    Removing stm32f7xx_hal_rcc_ex.o(i.HAL_RCCEx_GetPeriphCLKFreq), (308 bytes).
    Removing stm32f7xx_hal_rtc_ex.o(.rev16_text), (4 bytes).
    Removing stm32f7xx_hal_rtc_ex.o(.revsh_text), (4 bytes).
    Removing stm32f7xx_hal_rtc_ex.o(.rrx_text), (6 bytes).
    Removing stm32f7xx_hal_rtc_ex.o(i.HAL_RTCEx_AlarmBEventCallback), (2 bytes).
    Removing stm32f7xx_hal_rtc_ex.o(i.HAL_RTCEx_BKUPRead), (10 bytes).
    Removing stm32f7xx_hal_rtc_ex.o(i.HAL_RTCEx_BKUPWrite), (10 bytes).
    Removing stm32f7xx_hal_rtc_ex.o(i.HAL_RTCEx_DeactivateCalibrationOutPut), (60 bytes).
    Removing stm32f7xx_hal_rtc_ex.o(i.HAL_RTCEx_DeactivateInternalTimeStamp), (60 bytes).
    Removing stm32f7xx_hal_rtc_ex.o(i.HAL_RTCEx_DeactivateRefClock), (96 bytes).
    Removing stm32f7xx_hal_rtc_ex.o(i.HAL_RTCEx_DeactivateTamper), (110 bytes).
    Removing stm32f7xx_hal_rtc_ex.o(i.HAL_RTCEx_DeactivateTimeStamp), (78 bytes).
    Removing stm32f7xx_hal_rtc_ex.o(i.HAL_RTCEx_DeactivateWakeUpTimer), (134 bytes).
    Removing stm32f7xx_hal_rtc_ex.o(i.HAL_RTCEx_DisableBypassShadow), (60 bytes).
    Removing stm32f7xx_hal_rtc_ex.o(i.HAL_RTCEx_EnableBypassShadow), (60 bytes).
    Removing stm32f7xx_hal_rtc_ex.o(i.HAL_RTCEx_GetTimeStamp), (168 bytes).
    Removing stm32f7xx_hal_rtc_ex.o(i.HAL_RTCEx_GetWakeUpTimer), (8 bytes).
    Removing stm32f7xx_hal_rtc_ex.o(i.HAL_RTCEx_PollForAlarmBEvent), (80 bytes).
    Removing stm32f7xx_hal_rtc_ex.o(i.HAL_RTCEx_PollForTamper1Event), (80 bytes).
    Removing stm32f7xx_hal_rtc_ex.o(i.HAL_RTCEx_PollForTamper2Event), (80 bytes).
    Removing stm32f7xx_hal_rtc_ex.o(i.HAL_RTCEx_PollForTamper3Event), (82 bytes).
    Removing stm32f7xx_hal_rtc_ex.o(i.HAL_RTCEx_PollForTimeStampEvent), (96 bytes).
    Removing stm32f7xx_hal_rtc_ex.o(i.HAL_RTCEx_PollForWakeUpTimerEvent), (80 bytes).
    Removing stm32f7xx_hal_rtc_ex.o(i.HAL_RTCEx_SetCalibrationOutPut), (94 bytes).
    Removing stm32f7xx_hal_rtc_ex.o(i.HAL_RTCEx_SetInternalTimeStamp), (60 bytes).
    Removing stm32f7xx_hal_rtc_ex.o(i.HAL_RTCEx_SetRefClock), (96 bytes).
    Removing stm32f7xx_hal_rtc_ex.o(i.HAL_RTCEx_SetSmoothCalib), (142 bytes).
    Removing stm32f7xx_hal_rtc_ex.o(i.HAL_RTCEx_SetSynchroShift), (174 bytes).
    Removing stm32f7xx_hal_rtc_ex.o(i.HAL_RTCEx_SetTamper), (228 bytes).
    Removing stm32f7xx_hal_rtc_ex.o(i.HAL_RTCEx_SetTamper_IT), (312 bytes).
    Removing stm32f7xx_hal_rtc_ex.o(i.HAL_RTCEx_SetTimeStamp), (120 bytes).
    Removing stm32f7xx_hal_rtc_ex.o(i.HAL_RTCEx_SetTimeStamp_IT), (164 bytes).
    Removing stm32f7xx_hal_rtc_ex.o(i.HAL_RTCEx_SetWakeUpTimer), (174 bytes).
    Removing stm32f7xx_hal_rtc_ex.o(i.HAL_RTCEx_SetWakeUpTimer_IT), (228 bytes).
    Removing stm32f7xx_hal_rtc_ex.o(i.HAL_RTCEx_Tamper1EventCallback), (2 bytes).
    Removing stm32f7xx_hal_rtc_ex.o(i.HAL_RTCEx_Tamper2EventCallback), (2 bytes).
    Removing stm32f7xx_hal_rtc_ex.o(i.HAL_RTCEx_Tamper3EventCallback), (2 bytes).
    Removing stm32f7xx_hal_rtc_ex.o(i.HAL_RTCEx_TamperTimeStampIRQHandler), (200 bytes).
    Removing stm32f7xx_hal_rtc_ex.o(i.HAL_RTCEx_TimeStampEventCallback), (2 bytes).
    Removing stm32f7xx_hal_rtc_ex.o(i.HAL_RTCEx_WakeUpTimerEventCallback), (2 bytes).
    Removing stm32f7xx_hal_rtc_ex.o(i.HAL_RTCEx_WakeUpTimerIRQHandler), (60 bytes).
    Removing stm32f7xx_hal_rcc.o(.rev16_text), (4 bytes).
    Removing stm32f7xx_hal_rcc.o(.revsh_text), (4 bytes).
    Removing stm32f7xx_hal_rcc.o(.rrx_text), (6 bytes).
    Removing stm32f7xx_hal_rcc.o(i.HAL_RCC_CSSCallback), (2 bytes).
    Removing stm32f7xx_hal_rcc.o(i.HAL_RCC_DeInit), (128 bytes).
    Removing stm32f7xx_hal_rcc.o(i.HAL_RCC_DisableCSS), (16 bytes).
    Removing stm32f7xx_hal_rcc.o(i.HAL_RCC_EnableCSS), (16 bytes).
    Removing stm32f7xx_hal_rcc.o(i.HAL_RCC_GetClockConfig), (72 bytes).
    Removing stm32f7xx_hal_rcc.o(i.HAL_RCC_GetOscConfig), (236 bytes).
    Removing stm32f7xx_hal_rcc.o(i.HAL_RCC_MCOConfig), (160 bytes).
    Removing stm32f7xx_hal_rcc.o(i.HAL_RCC_NMI_IRQHandler), (36 bytes).
    Removing stm32f7xx_hal_dma_ex.o(.rev16_text), (4 bytes).
    Removing stm32f7xx_hal_dma_ex.o(.revsh_text), (4 bytes).
    Removing stm32f7xx_hal_dma_ex.o(.rrx_text), (6 bytes).
    Removing stm32f7xx_hal_dma_ex.o(i.HAL_DMAEx_ChangeMemory), (14 bytes).
    Removing stm32f7xx_hal_dma_ex.o(i.HAL_DMAEx_MultiBufferStart), (124 bytes).
    Removing stm32f7xx_hal_dma_ex.o(i.HAL_DMAEx_MultiBufferStart_IT), (1992 bytes).
    Removing stm32f7xx_hal_tim_ex.o(.rev16_text), (4 bytes).
    Removing stm32f7xx_hal_tim_ex.o(.revsh_text), (4 bytes).
    Removing stm32f7xx_hal_tim_ex.o(.rrx_text), (6 bytes).
    Removing stm32f7xx_hal_tim_ex.o(i.HAL_TIMEx_ConfigBreakDeadTime), (164 bytes).
    Removing stm32f7xx_hal_tim_ex.o(i.HAL_TIMEx_ConfigBreakInput), (166 bytes).
    Removing stm32f7xx_hal_tim_ex.o(i.HAL_TIMEx_ConfigCommutationEvent), (110 bytes).
    Removing stm32f7xx_hal_tim_ex.o(i.HAL_TIMEx_ConfigCommutationEvent_DMA), (140 bytes).
    Removing stm32f7xx_hal_tim_ex.o(i.HAL_TIMEx_ConfigCommutationEvent_IT), (120 bytes).
    Removing stm32f7xx_hal_tim_ex.o(i.HAL_TIMEx_GroupChannel5), (66 bytes).
    Removing stm32f7xx_hal_tim_ex.o(i.HAL_TIMEx_HallSensor_DeInit), (58 bytes).
    Removing stm32f7xx_hal_tim_ex.o(i.HAL_TIMEx_HallSensor_GetState), (6 bytes).
    Removing stm32f7xx_hal_tim_ex.o(i.HAL_TIMEx_HallSensor_Init), (186 bytes).
    Removing stm32f7xx_hal_tim_ex.o(i.HAL_TIMEx_HallSensor_MspDeInit), (2 bytes).
    Removing stm32f7xx_hal_tim_ex.o(i.HAL_TIMEx_HallSensor_MspInit), (2 bytes).
    Removing stm32f7xx_hal_tim_ex.o(i.HAL_TIMEx_HallSensor_Start), (28 bytes).
    Removing stm32f7xx_hal_tim_ex.o(i.HAL_TIMEx_HallSensor_Start_DMA), (112 bytes).
    Removing stm32f7xx_hal_tim_ex.o(i.HAL_TIMEx_HallSensor_Start_IT), (38 bytes).
    Removing stm32f7xx_hal_tim_ex.o(i.HAL_TIMEx_HallSensor_Stop), (48 bytes).
    Removing stm32f7xx_hal_tim_ex.o(i.HAL_TIMEx_HallSensor_Stop_DMA), (58 bytes).
    Removing stm32f7xx_hal_tim_ex.o(i.HAL_TIMEx_HallSensor_Stop_IT), (58 bytes).
    Removing stm32f7xx_hal_tim_ex.o(i.HAL_TIMEx_OCN_Start), (48 bytes).
    Removing stm32f7xx_hal_tim_ex.o(i.HAL_TIMEx_OCN_Start_DMA), (244 bytes).
    Removing stm32f7xx_hal_tim_ex.o(i.HAL_TIMEx_OCN_Start_IT), (110 bytes).
    Removing stm32f7xx_hal_tim_ex.o(i.HAL_TIMEx_OCN_Stop), (102 bytes).
    Removing stm32f7xx_hal_tim_ex.o(i.HAL_TIMEx_OCN_Stop_DMA), (164 bytes).
    Removing stm32f7xx_hal_tim_ex.o(i.HAL_TIMEx_OCN_Stop_IT), (172 bytes).
    Removing stm32f7xx_hal_tim_ex.o(i.HAL_TIMEx_OnePulseN_Start), (34 bytes).
    Removing stm32f7xx_hal_tim_ex.o(i.HAL_TIMEx_OnePulseN_Start_IT), (58 bytes).
    Removing stm32f7xx_hal_tim_ex.o(i.HAL_TIMEx_OnePulseN_Stop), (102 bytes).
    Removing stm32f7xx_hal_tim_ex.o(i.HAL_TIMEx_OnePulseN_Stop_IT), (122 bytes).
    Removing stm32f7xx_hal_tim_ex.o(i.HAL_TIMEx_PWMN_Start), (48 bytes).
    Removing stm32f7xx_hal_tim_ex.o(i.HAL_TIMEx_PWMN_Start_DMA), (244 bytes).
    Removing stm32f7xx_hal_tim_ex.o(i.HAL_TIMEx_PWMN_Start_IT), (110 bytes).
    Removing stm32f7xx_hal_tim_ex.o(i.HAL_TIMEx_PWMN_Stop), (102 bytes).
    Removing stm32f7xx_hal_tim_ex.o(i.HAL_TIMEx_PWMN_Stop_DMA), (164 bytes).
    Removing stm32f7xx_hal_tim_ex.o(i.HAL_TIMEx_PWMN_Stop_IT), (172 bytes).
    Removing stm32f7xx_hal_tim_ex.o(i.HAL_TIMEx_RemapConfig), (36 bytes).
    Removing stm32f7xx_hal_tim_ex.o(i.HAL_TIM_ConfigOCrefClear), (220 bytes).
    Removing stm32f7xx_hal_tim_ex.o(i.HAL_TIM_OC_ConfigChannel), (268 bytes).
    Removing stm32f7xx_hal_tim_ex.o(i.HAL_TIM_PWM_ConfigChannel), (460 bytes).
    Removing stm32f7xx_hal_tim_ex.o(i.TIMEx_DMACommutationCplt), (16 bytes).
    Removing stm32f7xx_hal_flash_ex.o(.rev16_text), (4 bytes).
    Removing stm32f7xx_hal_flash_ex.o(.revsh_text), (4 bytes).
    Removing stm32f7xx_hal_flash_ex.o(.rrx_text), (6 bytes).
    Removing stm32f7xx_hal_flash_ex.o(i.FLASH_Erase_Sector), (88 bytes).
    Removing stm32f7xx_hal_flash_ex.o(i.HAL_FLASHEx_Erase), (292 bytes).
    Removing stm32f7xx_hal_flash_ex.o(i.HAL_FLASHEx_Erase_IT), (236 bytes).
    Removing stm32f7xx_hal_flash_ex.o(i.HAL_FLASHEx_OBGetConfig), (84 bytes).
    Removing stm32f7xx_hal_flash_ex.o(i.HAL_FLASHEx_OBProgram), (320 bytes).
    Removing stm32f7xx_hal_qspi.o(.rev16_text), (4 bytes).
    Removing stm32f7xx_hal_qspi.o(.revsh_text), (4 bytes).
    Removing stm32f7xx_hal_qspi.o(.rrx_text), (6 bytes).
    Removing stm32f7xx_hal_qspi.o(i.HAL_QSPI_Abort), (128 bytes).
    Removing stm32f7xx_hal_qspi.o(i.HAL_QSPI_AbortCpltCallback), (2 bytes).
    Removing stm32f7xx_hal_qspi.o(i.HAL_QSPI_Abort_IT), (104 bytes).
    Removing stm32f7xx_hal_qspi.o(i.HAL_QSPI_AutoPolling), (176 bytes).
    Removing stm32f7xx_hal_qspi.o(i.HAL_QSPI_AutoPolling_IT), (170 bytes).
    Removing stm32f7xx_hal_qspi.o(i.HAL_QSPI_CmdCpltCallback), (2 bytes).
    Removing stm32f7xx_hal_qspi.o(i.HAL_QSPI_Command), (146 bytes).
    Removing stm32f7xx_hal_qspi.o(i.HAL_QSPI_Command_IT), (134 bytes).
    Removing stm32f7xx_hal_qspi.o(i.HAL_QSPI_DeInit), (60 bytes).
    Removing stm32f7xx_hal_qspi.o(i.HAL_QSPI_ErrorCallback), (2 bytes).
    Removing stm32f7xx_hal_qspi.o(i.HAL_QSPI_FifoThresholdCallback), (2 bytes).
    Removing stm32f7xx_hal_qspi.o(i.HAL_QSPI_GetError), (4 bytes).
    Removing stm32f7xx_hal_qspi.o(i.HAL_QSPI_GetFifoThreshold), (12 bytes).
    Removing stm32f7xx_hal_qspi.o(i.HAL_QSPI_GetState), (6 bytes).
    Removing stm32f7xx_hal_qspi.o(i.HAL_QSPI_IRQHandler), (520 bytes).
    Removing stm32f7xx_hal_qspi.o(i.HAL_QSPI_MemoryMapped), (142 bytes).
    Removing stm32f7xx_hal_qspi.o(i.HAL_QSPI_MspDeInit), (2 bytes).
    Removing stm32f7xx_hal_qspi.o(i.HAL_QSPI_MspInit), (2 bytes).
    Removing stm32f7xx_hal_qspi.o(i.HAL_QSPI_Receive), (198 bytes).
    Removing stm32f7xx_hal_qspi.o(i.HAL_QSPI_Receive_DMA), (256 bytes).
    Removing stm32f7xx_hal_qspi.o(i.HAL_QSPI_Receive_IT), (130 bytes).
    Removing stm32f7xx_hal_qspi.o(i.HAL_QSPI_RxCpltCallback), (2 bytes).
    Removing stm32f7xx_hal_qspi.o(i.HAL_QSPI_RxHalfCpltCallback), (2 bytes).
    Removing stm32f7xx_hal_qspi.o(i.HAL_QSPI_SetFifoThreshold), (70 bytes).
    Removing stm32f7xx_hal_qspi.o(i.HAL_QSPI_SetTimeout), (4 bytes).
    Removing stm32f7xx_hal_qspi.o(i.HAL_QSPI_StatusMatchCallback), (2 bytes).
    Removing stm32f7xx_hal_qspi.o(i.HAL_QSPI_TimeOutCallback), (2 bytes).
    Removing stm32f7xx_hal_qspi.o(i.HAL_QSPI_Transmit), (190 bytes).
    Removing stm32f7xx_hal_qspi.o(i.HAL_QSPI_Transmit_DMA), (244 bytes).
    Removing stm32f7xx_hal_qspi.o(i.HAL_QSPI_Transmit_IT), (130 bytes).
    Removing stm32f7xx_hal_qspi.o(i.HAL_QSPI_TxCpltCallback), (2 bytes).
    Removing stm32f7xx_hal_qspi.o(i.HAL_QSPI_TxHalfCpltCallback), (2 bytes).
    Removing stm32f7xx_hal_qspi.o(i.QSPI_Config), (590 bytes).
    Removing stm32f7xx_hal_qspi.o(i.QSPI_DMAAbortCplt), (58 bytes).
    Removing stm32f7xx_hal_qspi.o(i.QSPI_DMAError), (136 bytes).
    Removing stm32f7xx_hal_qspi.o(i.QSPI_DMARxCplt), (18 bytes).
    Removing stm32f7xx_hal_qspi.o(i.QSPI_DMARxHalfCplt), (10 bytes).
    Removing stm32f7xx_hal_qspi.o(i.QSPI_DMATxCplt), (18 bytes).
    Removing stm32f7xx_hal_qspi.o(i.QSPI_DMATxHalfCplt), (10 bytes).
    Removing stm32f7xx_hal_i2c.o(.rev16_text), (4 bytes).
    Removing stm32f7xx_hal_i2c.o(.revsh_text), (4 bytes).
    Removing stm32f7xx_hal_i2c.o(.rrx_text), (6 bytes).
    Removing stm32f7xx_hal_i2c.o(i.HAL_I2C_AbortCpltCallback), (2 bytes).
    Removing stm32f7xx_hal_i2c.o(i.HAL_I2C_AddrCallback), (2 bytes).
    Removing stm32f7xx_hal_i2c.o(i.HAL_I2C_DeInit), (54 bytes).
    Removing stm32f7xx_hal_i2c.o(i.HAL_I2C_DisableListen_IT), (56 bytes).
    Removing stm32f7xx_hal_i2c.o(i.HAL_I2C_ER_IRQHandler), (120 bytes).
    Removing stm32f7xx_hal_i2c.o(i.HAL_I2C_EV_IRQHandler), (16 bytes).
    Removing stm32f7xx_hal_i2c.o(i.HAL_I2C_EnableListen_IT), (40 bytes).
    Removing stm32f7xx_hal_i2c.o(i.HAL_I2C_ErrorCallback), (2 bytes).
    Removing stm32f7xx_hal_i2c.o(i.HAL_I2C_GetError), (4 bytes).
    Removing stm32f7xx_hal_i2c.o(i.HAL_I2C_GetMode), (6 bytes).
    Removing stm32f7xx_hal_i2c.o(i.HAL_I2C_GetState), (6 bytes).
    Removing stm32f7xx_hal_i2c.o(i.HAL_I2C_Init), (180 bytes).
    Removing stm32f7xx_hal_i2c.o(i.HAL_I2C_IsDeviceReady), (308 bytes).
    Removing stm32f7xx_hal_i2c.o(i.HAL_I2C_ListenCpltCallback), (2 bytes).
    Removing stm32f7xx_hal_i2c.o(i.HAL_I2C_MasterRxCpltCallback), (2 bytes).
    Removing stm32f7xx_hal_i2c.o(i.HAL_I2C_MasterTxCpltCallback), (2 bytes).
    Removing stm32f7xx_hal_i2c.o(i.HAL_I2C_Master_Abort_IT), (108 bytes).
    Removing stm32f7xx_hal_i2c.o(i.HAL_I2C_Master_Receive), (588 bytes).
    Removing stm32f7xx_hal_i2c.o(i.HAL_I2C_Master_Receive_DMA), (284 bytes).
    Removing stm32f7xx_hal_i2c.o(i.HAL_I2C_Master_Receive_IT), (156 bytes).
    Removing stm32f7xx_hal_i2c.o(i.HAL_I2C_Master_Sequential_Receive_IT), (148 bytes).
    Removing stm32f7xx_hal_i2c.o(i.HAL_I2C_Master_Sequential_Transmit_IT), (148 bytes).
    Removing stm32f7xx_hal_i2c.o(i.HAL_I2C_Master_Transmit), (384 bytes).
    Removing stm32f7xx_hal_i2c.o(i.HAL_I2C_Master_Transmit_DMA), (280 bytes).
    Removing stm32f7xx_hal_i2c.o(i.HAL_I2C_Master_Transmit_IT), (156 bytes).
    Removing stm32f7xx_hal_i2c.o(i.HAL_I2C_MemRxCpltCallback), (2 bytes).
    Removing stm32f7xx_hal_i2c.o(i.HAL_I2C_MemTxCpltCallback), (2 bytes).
    Removing stm32f7xx_hal_i2c.o(i.HAL_I2C_Mem_Read), (440 bytes).
    Removing stm32f7xx_hal_i2c.o(i.HAL_I2C_Mem_Read_DMA), (292 bytes).
    Removing stm32f7xx_hal_i2c.o(i.HAL_I2C_Mem_Read_IT), (232 bytes).
    Removing stm32f7xx_hal_i2c.o(i.HAL_I2C_Mem_Write), (432 bytes).
    Removing stm32f7xx_hal_i2c.o(i.HAL_I2C_Mem_Write_DMA), (292 bytes).
    Removing stm32f7xx_hal_i2c.o(i.HAL_I2C_Mem_Write_IT), (228 bytes).
    Removing stm32f7xx_hal_i2c.o(i.HAL_I2C_MspDeInit), (2 bytes).
    Removing stm32f7xx_hal_i2c.o(i.HAL_I2C_MspInit), (2 bytes).
    Removing stm32f7xx_hal_i2c.o(i.HAL_I2C_SlaveRxCpltCallback), (2 bytes).
    Removing stm32f7xx_hal_i2c.o(i.HAL_I2C_SlaveTxCpltCallback), (2 bytes).
    Removing stm32f7xx_hal_i2c.o(i.HAL_I2C_Slave_Receive), (536 bytes).
    Removing stm32f7xx_hal_i2c.o(i.HAL_I2C_Slave_Receive_DMA), (164 bytes).
    Removing stm32f7xx_hal_i2c.o(i.HAL_I2C_Slave_Receive_IT), (96 bytes).
    Removing stm32f7xx_hal_i2c.o(i.HAL_I2C_Slave_Sequential_Receive_IT), (160 bytes).
    Removing stm32f7xx_hal_i2c.o(i.HAL_I2C_Slave_Sequential_Transmit_IT), (160 bytes).
    Removing stm32f7xx_hal_i2c.o(i.HAL_I2C_Slave_Transmit), (344 bytes).
    Removing stm32f7xx_hal_i2c.o(i.HAL_I2C_Slave_Transmit_DMA), (160 bytes).
    Removing stm32f7xx_hal_i2c.o(i.HAL_I2C_Slave_Transmit_IT), (96 bytes).
    Removing stm32f7xx_hal_i2c.o(i.I2C_DMAAbort), (50 bytes).
    Removing stm32f7xx_hal_i2c.o(i.I2C_DMAError), (18 bytes).
    Removing stm32f7xx_hal_i2c.o(i.I2C_DMAMasterReceiveCplt), (62 bytes).
    Removing stm32f7xx_hal_i2c.o(i.I2C_DMAMasterTransmitCplt), (62 bytes).
    Removing stm32f7xx_hal_i2c.o(i.I2C_DMASlaveReceiveCplt), (2 bytes).
    Removing stm32f7xx_hal_i2c.o(i.I2C_DMASlaveTransmitCplt), (2 bytes).
    Removing stm32f7xx_hal_i2c.o(i.I2C_Disable_IRQ), (100 bytes).
    Removing stm32f7xx_hal_i2c.o(i.I2C_Enable_IRQ), (124 bytes).
    Removing stm32f7xx_hal_i2c.o(i.I2C_ITError), (236 bytes).
    Removing stm32f7xx_hal_i2c.o(i.I2C_ITMasterCplt), (208 bytes).
    Removing stm32f7xx_hal_i2c.o(i.I2C_ITSlaveCplt), (360 bytes).
    Removing stm32f7xx_hal_i2c.o(i.I2C_Master_ISR_DMA), (244 bytes).
    Removing stm32f7xx_hal_i2c.o(i.I2C_Master_ISR_IT), (484 bytes).
    Removing stm32f7xx_hal_i2c.o(i.I2C_RequestMemoryRead), (136 bytes).
    Removing stm32f7xx_hal_i2c.o(i.I2C_RequestMemoryWrite), (140 bytes).
    Removing stm32f7xx_hal_i2c.o(i.I2C_Slave_ISR_DMA), (114 bytes).
    Removing stm32f7xx_hal_i2c.o(i.I2C_Slave_ISR_IT), (708 bytes).
    Removing stm32f7xx_hal_i2c.o(i.I2C_WaitOnFlagUntilTimeout), (102 bytes).
    Removing stm32f7xx_hal_i2c.o(i.I2C_WaitOnSTOPFlagUntilTimeout), (212 bytes).
    Removing stm32f7xx_hal_i2c.o(i.I2C_WaitOnTXISFlagUntilTimeout), (216 bytes).
    Removing stm32f7xx_hal_i2c_ex.o(.rev16_text), (4 bytes).
    Removing stm32f7xx_hal_i2c_ex.o(.revsh_text), (4 bytes).
    Removing stm32f7xx_hal_i2c_ex.o(.rrx_text), (6 bytes).
    Removing stm32f7xx_hal_i2c_ex.o(i.HAL_I2CEx_ConfigAnalogFilter), (100 bytes).
    Removing stm32f7xx_hal_i2c_ex.o(i.HAL_I2CEx_ConfigDigitalFilter), (96 bytes).
    Removing stm32f7xx_hal_i2c_ex.o(i.HAL_I2CEx_DisableFastModePlus), (44 bytes).
    Removing stm32f7xx_hal_i2c_ex.o(i.HAL_I2CEx_EnableFastModePlus), (40 bytes).
    Removing stm32f7xx_hal_uart.o(.rev16_text), (4 bytes).
    Removing stm32f7xx_hal_uart.o(.revsh_text), (4 bytes).
    Removing stm32f7xx_hal_uart.o(.rrx_text), (6 bytes).
    Removing stm32f7xx_hal_uart.o(i.HAL_HalfDuplex_EnableReceiver), (68 bytes).
    Removing stm32f7xx_hal_uart.o(i.HAL_HalfDuplex_EnableTransmitter), (68 bytes).
    Removing stm32f7xx_hal_uart.o(i.HAL_HalfDuplex_Init), (120 bytes).
    Removing stm32f7xx_hal_uart.o(i.HAL_LIN_Init), (134 bytes).
    Removing stm32f7xx_hal_uart.o(i.HAL_LIN_SendBreak), (54 bytes).
    Removing stm32f7xx_hal_uart.o(i.HAL_MultiProcessorEx_AddressLength_Set), (50 bytes).
    Removing stm32f7xx_hal_uart.o(i.HAL_MultiProcessor_DisableMuteMode), (44 bytes).
    Removing stm32f7xx_hal_uart.o(i.HAL_MultiProcessor_EnableMuteMode), (44 bytes).
    Removing stm32f7xx_hal_uart.o(i.HAL_MultiProcessor_EnterMuteMode), (12 bytes).
    Removing stm32f7xx_hal_uart.o(i.HAL_MultiProcessor_Init), (142 bytes).
    Removing stm32f7xx_hal_uart.o(i.HAL_RS485Ex_Init), (140 bytes).
    Removing stm32f7xx_hal_uart.o(i.HAL_UART_DMAPause), (100 bytes).
    Removing stm32f7xx_hal_uart.o(i.HAL_UART_DMAResume), (102 bytes).
    Removing stm32f7xx_hal_uart.o(i.HAL_UART_DMAStop), (120 bytes).
    Removing stm32f7xx_hal_uart.o(i.HAL_UART_DeInit), (66 bytes).
    Removing stm32f7xx_hal_uart.o(i.HAL_UART_GetError), (4 bytes).
    Removing stm32f7xx_hal_uart.o(i.HAL_UART_GetState), (12 bytes).
    Removing stm32f7xx_hal_uart.o(i.HAL_UART_MspDeInit), (2 bytes).
    Removing stm32f7xx_hal_uart.o(i.HAL_UART_MspInit), (2 bytes).
    Removing stm32f7xx_hal_uart.o(i.HAL_UART_Receive), (334 bytes).
    Removing stm32f7xx_hal_uart.o(i.HAL_UART_Receive_DMA), (148 bytes).
    Removing stm32f7xx_hal_uart.o(i.HAL_UART_RxCpltCallback), (2 bytes).
    Removing stm32f7xx_hal_uart.o(i.HAL_UART_RxHalfCpltCallback), (2 bytes).
    Removing stm32f7xx_hal_uart.o(i.HAL_UART_Transmit), (268 bytes).
    Removing stm32f7xx_hal_uart.o(i.HAL_UART_Transmit_DMA), (136 bytes).
    Removing stm32f7xx_hal_uart.o(i.HAL_UART_Transmit_IT), (68 bytes).
    Removing stm32f7xx_hal_uart.o(i.HAL_UART_TxCpltCallback), (2 bytes).
    Removing stm32f7xx_hal_uart.o(i.HAL_UART_TxHalfCpltCallback), (2 bytes).
    Removing stm32f7xx_hal_uart.o(i.UART_DMAError), (100 bytes).
    Removing stm32f7xx_hal_uart.o(i.UART_DMAReceiveCplt), (62 bytes).
    Removing stm32f7xx_hal_uart.o(i.UART_DMARxHalfCplt), (10 bytes).
    Removing stm32f7xx_hal_uart.o(i.UART_DMATransmitCplt), (48 bytes).
    Removing stm32f7xx_hal_uart.o(i.UART_DMATxHalfCplt), (10 bytes).
    Removing stm32f7xx_hal_spi.o(.rev16_text), (4 bytes).
    Removing stm32f7xx_hal_spi.o(.revsh_text), (4 bytes).
    Removing stm32f7xx_hal_spi.o(.rrx_text), (6 bytes).
    Removing stm32f7xx_hal_spi.o(i.HAL_SPI_Abort), (324 bytes).
    Removing stm32f7xx_hal_spi.o(i.HAL_SPI_AbortCpltCallback), (2 bytes).
    Removing stm32f7xx_hal_spi.o(i.HAL_SPI_Abort_IT), (332 bytes).
    Removing stm32f7xx_hal_spi.o(i.HAL_SPI_DMAPause), (38 bytes).
    Removing stm32f7xx_hal_spi.o(i.HAL_SPI_DMAResume), (38 bytes).
    Removing stm32f7xx_hal_spi.o(i.HAL_SPI_DMAStop), (44 bytes).
    Removing stm32f7xx_hal_spi.o(i.HAL_SPI_DeInit), (48 bytes).
    Removing stm32f7xx_hal_spi.o(i.HAL_SPI_GetError), (4 bytes).
    Removing stm32f7xx_hal_spi.o(i.HAL_SPI_GetState), (6 bytes).
    Removing stm32f7xx_hal_spi.o(i.HAL_SPI_MspDeInit), (2 bytes).
    Removing stm32f7xx_hal_spi.o(i.HAL_SPI_MspInit), (2 bytes).
    Removing stm32f7xx_hal_spi.o(i.HAL_SPI_Receive), (466 bytes).
    Removing stm32f7xx_hal_spi.o(i.HAL_SPI_Receive_DMA), (288 bytes).
    Removing stm32f7xx_hal_spi.o(i.HAL_SPI_Receive_IT), (204 bytes).
    Removing stm32f7xx_hal_spi.o(i.HAL_SPI_RxCpltCallback), (2 bytes).
    Removing stm32f7xx_hal_spi.o(i.HAL_SPI_RxHalfCpltCallback), (2 bytes).
    Removing stm32f7xx_hal_spi.o(i.HAL_SPI_Transmit), (332 bytes).
    Removing stm32f7xx_hal_spi.o(i.HAL_SPI_TransmitReceive), (560 bytes).
    Removing stm32f7xx_hal_spi.o(i.HAL_SPI_TransmitReceive_DMA), (420 bytes).
    Removing stm32f7xx_hal_spi.o(i.HAL_SPI_TransmitReceive_IT), (212 bytes).
    Removing stm32f7xx_hal_spi.o(i.HAL_SPI_Transmit_DMA), (264 bytes).
    Removing stm32f7xx_hal_spi.o(i.HAL_SPI_TxCpltCallback), (2 bytes).
    Removing stm32f7xx_hal_spi.o(i.HAL_SPI_TxHalfCpltCallback), (2 bytes).
    Removing stm32f7xx_hal_spi.o(i.HAL_SPI_TxRxCpltCallback), (2 bytes).
    Removing stm32f7xx_hal_spi.o(i.HAL_SPI_TxRxHalfCpltCallback), (2 bytes).
    Removing stm32f7xx_hal_spi.o(i.SPI_2linesRxISR_16BIT), (134 bytes).
    Removing stm32f7xx_hal_spi.o(i.SPI_2linesRxISR_8BIT), (180 bytes).
    Removing stm32f7xx_hal_spi.o(i.SPI_2linesTxISR_16BIT), (130 bytes).
    Removing stm32f7xx_hal_spi.o(i.SPI_2linesTxISR_8BIT), (150 bytes).
    Removing stm32f7xx_hal_spi.o(i.SPI_AbortRx_ISR), (126 bytes).
    Removing stm32f7xx_hal_spi.o(i.SPI_AbortTx_ISR), (120 bytes).
    Removing stm32f7xx_hal_spi.o(i.SPI_DMAError), (34 bytes).
    Removing stm32f7xx_hal_spi.o(i.SPI_DMAHalfReceiveCplt), (10 bytes).
    Removing stm32f7xx_hal_spi.o(i.SPI_DMAHalfTransmitCplt), (10 bytes).
    Removing stm32f7xx_hal_spi.o(i.SPI_DMAHalfTransmitReceiveCplt), (10 bytes).
    Removing stm32f7xx_hal_spi.o(i.SPI_DMAReceiveCplt), (176 bytes).
    Removing stm32f7xx_hal_spi.o(i.SPI_DMARxAbortCallback), (134 bytes).
    Removing stm32f7xx_hal_spi.o(i.SPI_DMATransmitCplt), (102 bytes).
    Removing stm32f7xx_hal_spi.o(i.SPI_DMATransmitReceiveCplt), (94 bytes).
    Removing stm32f7xx_hal_spi.o(i.SPI_DMATxAbortCallback), (130 bytes).
    Removing stm32f7xx_hal_spi.o(i.SPI_RxISR_16BIT), (186 bytes).
    Removing stm32f7xx_hal_spi.o(i.SPI_RxISR_8BIT), (184 bytes).
    Removing system_stm32f7xx.o(.rev16_text), (4 bytes).
    Removing system_stm32f7xx.o(.revsh_text), (4 bytes).
    Removing system_stm32f7xx.o(.rrx_text), (6 bytes).
    Removing system_stm32f7xx.o(i.SystemCoreClockUpdate), (148 bytes).
    Removing fc46.o(.bss), (200 bytes).
    Removing fc49.o(.data), (4 bytes).
    Removing fc49.o(.data), (4 bytes).
    Removing fcbf.o(.rev16_text), (4 bytes).
    Removing fcbf.o(.revsh_text), (4 bytes).
    Removing fcbf.o(.rrx_text), (6 bytes).
    Removing fc37.o(.rev16_text), (4 bytes).
    Removing fc37.o(.revsh_text), (4 bytes).
    Removing fc37.o(.rrx_text), (6 bytes).
    Removing fcunb.o(i.fcUNB_initial_dt), (164 bytes).
    Removing fcunb.o(.data), (1 bytes).
    Removing fcunb.o(.data), (1 bytes).
    Removing fcpvp.o(.data), (4 bytes).
    Removing fcpvp.o(.data), (4 bytes).
    Removing fcpvp.o(.data), (4 bytes).
    Removing pickup_handles.o(.rev16_text), (4 bytes).
    Removing pickup_handles.o(.revsh_text), (4 bytes).
    Removing pickup_handles.o(.rrx_text), (6 bytes).
    Removing cs_handles.o(.data), (8 bytes).
    Removing cs_handles.o(.data), (8 bytes).
    Removing cs_handles.o(.data), (8 bytes).
    Removing spectra.o(i.spectral_analysis), (116 bytes).
    Removing spectra.o(.data), (404 bytes).
    Removing conversion.o(.rev16_text), (4 bytes).
    Removing conversion.o(.revsh_text), (4 bytes).
    Removing conversion.o(.rrx_text), (6 bytes).
    Removing conversion.o(i.averager), (84 bytes).
    Removing conversion.o(.data), (4 bytes).
    Removing boardio.o(.rev16_text), (4 bytes).
    Removing boardio.o(.revsh_text), (4 bytes).
    Removing boardio.o(.rrx_text), (6 bytes).
    Removing dataparsermerger.o(.rev16_text), (4 bytes).
    Removing dataparsermerger.o(.revsh_text), (4 bytes).
    Removing dataparsermerger.o(.rrx_text), (6 bytes).
    Removing fputc_debug.o(.rev16_text), (4 bytes).
    Removing fputc_debug.o(.revsh_text), (4 bytes).
    Removing fputc_debug.o(.rrx_text), (6 bytes).
    Removing fputc_debug.o(i.fputc), (52 bytes).
    Removing modbus_masterslave.o(.rev16_text), (4 bytes).
    Removing modbus_masterslave.o(.revsh_text), (4 bytes).
    Removing modbus_masterslave.o(.rrx_text), (6 bytes).
    Removing modbus_masterslave.o(i.modbus_preparePushData), (256 bytes).
    Removing modbus_masterslave.o(i.modbus_prepareReceiveData), (128 bytes).
    Removing modbus_masterslave.o(.bss), (10280 bytes).
    Removing modbus_masterslave.o(.data), (8 bytes).
    Removing spi_masterslave.o(.rev16_text), (4 bytes).
    Removing spi_masterslave.o(.revsh_text), (4 bytes).
    Removing spi_masterslave.o(.rrx_text), (6 bytes).
    Removing spi_masterslave.o(i.HAL_SPI_RxCpltCallback), (40 bytes).
    Removing uart_masterslave.o(.rev16_text), (4 bytes).
    Removing uart_masterslave.o(.revsh_text), (4 bytes).
    Removing uart_masterslave.o(.rrx_text), (6 bytes).
    Removing commparams.o(.rev16_text), (4 bytes).
    Removing commparams.o(.revsh_text), (4 bytes).
    Removing commparams.o(.rrx_text), (6 bytes).
    Removing commparams.o(.bss), (996 bytes).
    Removing commparams.o(.bss), (996 bytes).
    Removing commparams.o(.data), (1 bytes).
    Removing commparams.o(.data), (1 bytes).
    Removing commparams.o(.data), (4 bytes).
    Removing commparams.o(.data), (4 bytes).
    Removing configparams.o(i.checkDataFromMaster), (2 bytes).
    Removing main_flow.o(.rev16_text), (4 bytes).
    Removing main_flow.o(.revsh_text), (4 bytes).
    Removing main_flow.o(.rrx_text), (6 bytes).

682 unused section(s) (total 71036 bytes) removed from the image.

==============================================================================

Image Symbol Table

    Local Symbols

    Symbol Name                              Value     Ov Type        Size  Object(Section)

    ../Drivers/STM32F7xx_HAL_Driver/Src/stm32f7xx_hal.c 0x00000000   Number         0  stm32f7xx_hal.o ABSOLUTE
    ../Drivers/STM32F7xx_HAL_Driver/Src/stm32f7xx_hal_adc.c 0x00000000   Number         0  stm32f7xx_hal_adc.o ABSOLUTE
    ../Drivers/STM32F7xx_HAL_Driver/Src/stm32f7xx_hal_adc_ex.c 0x00000000   Number         0  stm32f7xx_hal_adc_ex.o ABSOLUTE
    ../Drivers/STM32F7xx_HAL_Driver/Src/stm32f7xx_hal_cortex.c 0x00000000   Number         0  stm32f7xx_hal_cortex.o ABSOLUTE
    ../Drivers/STM32F7xx_HAL_Driver/Src/stm32f7xx_hal_dma.c 0x00000000   Number         0  stm32f7xx_hal_dma.o ABSOLUTE
    ../Drivers/STM32F7xx_HAL_Driver/Src/stm32f7xx_hal_dma_ex.c 0x00000000   Number         0  stm32f7xx_hal_dma_ex.o ABSOLUTE
    ../Drivers/STM32F7xx_HAL_Driver/Src/stm32f7xx_hal_flash.c 0x00000000   Number         0  stm32f7xx_hal_flash.o ABSOLUTE
    ../Drivers/STM32F7xx_HAL_Driver/Src/stm32f7xx_hal_flash_ex.c 0x00000000   Number         0  stm32f7xx_hal_flash_ex.o ABSOLUTE
    ../Drivers/STM32F7xx_HAL_Driver/Src/stm32f7xx_hal_gpio.c 0x00000000   Number         0  stm32f7xx_hal_gpio.o ABSOLUTE
    ../Drivers/STM32F7xx_HAL_Driver/Src/stm32f7xx_hal_i2c.c 0x00000000   Number         0  stm32f7xx_hal_i2c.o ABSOLUTE
    ../Drivers/STM32F7xx_HAL_Driver/Src/stm32f7xx_hal_i2c_ex.c 0x00000000   Number         0  stm32f7xx_hal_i2c_ex.o ABSOLUTE
    ../Drivers/STM32F7xx_HAL_Driver/Src/stm32f7xx_hal_pwr.c 0x00000000   Number         0  stm32f7xx_hal_pwr.o ABSOLUTE
    ../Drivers/STM32F7xx_HAL_Driver/Src/stm32f7xx_hal_pwr_ex.c 0x00000000   Number         0  stm32f7xx_hal_pwr_ex.o ABSOLUTE
    ../Drivers/STM32F7xx_HAL_Driver/Src/stm32f7xx_hal_qspi.c 0x00000000   Number         0  stm32f7xx_hal_qspi.o ABSOLUTE
    ../Drivers/STM32F7xx_HAL_Driver/Src/stm32f7xx_hal_rcc.c 0x00000000   Number         0  stm32f7xx_hal_rcc.o ABSOLUTE
    ../Drivers/STM32F7xx_HAL_Driver/Src/stm32f7xx_hal_rcc_ex.c 0x00000000   Number         0  stm32f7xx_hal_rcc_ex.o ABSOLUTE
    ../Drivers/STM32F7xx_HAL_Driver/Src/stm32f7xx_hal_rtc.c 0x00000000   Number         0  stm32f7xx_hal_rtc.o ABSOLUTE
    ../Drivers/STM32F7xx_HAL_Driver/Src/stm32f7xx_hal_rtc_ex.c 0x00000000   Number         0  stm32f7xx_hal_rtc_ex.o ABSOLUTE
    ../Drivers/STM32F7xx_HAL_Driver/Src/stm32f7xx_hal_spi.c 0x00000000   Number         0  stm32f7xx_hal_spi.o ABSOLUTE
    ../Drivers/STM32F7xx_HAL_Driver/Src/stm32f7xx_hal_tim.c 0x00000000   Number         0  stm32f7xx_hal_tim.o ABSOLUTE
    ../Drivers/STM32F7xx_HAL_Driver/Src/stm32f7xx_hal_tim_ex.c 0x00000000   Number         0  stm32f7xx_hal_tim_ex.o ABSOLUTE
    ../Drivers/STM32F7xx_HAL_Driver/Src/stm32f7xx_hal_uart.c 0x00000000   Number         0  stm32f7xx_hal_uart.o ABSOLUTE
    ../Src/adc.c                             0x00000000   Number         0  adc.o ABSOLUTE
    ../Src/dma.c                             0x00000000   Number         0  dma.o ABSOLUTE
    ../Src/gpio.c                            0x00000000   Number         0  gpio.o ABSOLUTE
    ../Src/main.c                            0x00000000   Number         0  main.o ABSOLUTE
    ../Src/quadspi.c                         0x00000000   Number         0  quadspi.o ABSOLUTE
    ../Src/rtc.c                             0x00000000   Number         0  rtc.o ABSOLUTE
    ../Src/spi.c                             0x00000000   Number         0  spi.o ABSOLUTE
    ../Src/stm32f7xx_hal_msp.c               0x00000000   Number         0  stm32f7xx_hal_msp.o ABSOLUTE
    ../Src/stm32f7xx_it.c                    0x00000000   Number         0  stm32f7xx_it.o ABSOLUTE
    ../Src/system_stm32f7xx.c                0x00000000   Number         0  system_stm32f7xx.o ABSOLUTE
    ../Src/tim.c                             0x00000000   Number         0  tim.o ABSOLUTE
    ../Src/usart.c                           0x00000000   Number         0  usart.o ABSOLUTE
    ../clib/../cmprslib/zerorunl2.c          0x00000000   Number         0  __dczerorl2.o ABSOLUTE
    ../clib/microlib/errno.c                 0x00000000   Number         0  errno.o ABSOLUTE
    ../clib/microlib/init/entry.s            0x00000000   Number         0  entry.o ABSOLUTE
    ../clib/microlib/init/entry.s            0x00000000   Number         0  entry10b.o ABSOLUTE
    ../clib/microlib/init/entry.s            0x00000000   Number         0  entry10a.o ABSOLUTE
    ../clib/microlib/init/entry.s            0x00000000   Number         0  entry11a.o ABSOLUTE
    ../clib/microlib/init/entry.s            0x00000000   Number         0  entry11b.o ABSOLUTE
    ../clib/microlib/init/entry.s            0x00000000   Number         0  entry7a.o ABSOLUTE
    ../clib/microlib/init/entry.s            0x00000000   Number         0  entry5.o ABSOLUTE
    ../clib/microlib/init/entry.s            0x00000000   Number         0  entry2.o ABSOLUTE
    ../clib/microlib/init/entry.s            0x00000000   Number         0  entry8a.o ABSOLUTE
    ../clib/microlib/init/entry.s            0x00000000   Number         0  entry9b.o ABSOLUTE
    ../clib/microlib/init/entry.s            0x00000000   Number         0  entry9a.o ABSOLUTE
    ../clib/microlib/init/entry.s            0x00000000   Number         0  entry8b.o ABSOLUTE
    ../clib/microlib/init/entry.s            0x00000000   Number         0  entry7b.o ABSOLUTE
    ../clib/microlib/stubs.s                 0x00000000   Number         0  iusefp.o ABSOLUTE
    ../fplib/microlib/fpstat.c               0x00000000   Number         0  fpstat.o ABSOLUTE
    ../mathlib/atan.c                        0x00000000   Number         0  atan_x.o ABSOLUTE
    ../mathlib/atan.c                        0x00000000   Number         0  atan.o ABSOLUTE
    ../mathlib/atan2.c                       0x00000000   Number         0  atan2.o ABSOLUTE
    ../mathlib/atan2.c                       0x00000000   Number         0  atan2_x.o ABSOLUTE
    ../mathlib/atan2f.c                      0x00000000   Number         0  atan2f.o ABSOLUTE
    ../mathlib/atan2f.c                      0x00000000   Number         0  atan2f_x.o ABSOLUTE
    ../mathlib/cos_i.c                       0x00000000   Number         0  cos_i.o ABSOLUTE
    ../mathlib/dunder.c                      0x00000000   Number         0  dunder.o ABSOLUTE
    ../mathlib/fabs.c                        0x00000000   Number         0  fabs.o ABSOLUTE
    ../mathlib/fpclassify.c                  0x00000000   Number         0  fpclassify.o ABSOLUTE
    ../mathlib/fpclassifyf.c                 0x00000000   Number         0  fpclassifyf.o ABSOLUTE
    ../mathlib/funder.c                      0x00000000   Number         0  funder.o ABSOLUTE
    ../mathlib/poly.c                        0x00000000   Number         0  poly.o ABSOLUTE
    ../mathlib/powf.c                        0x00000000   Number         0  powf.o ABSOLUTE
    ../mathlib/powf.c                        0x00000000   Number         0  powf_x.o ABSOLUTE
    ../mathlib/qnan.c                        0x00000000   Number         0  qnan.o ABSOLUTE
    ../mathlib/rred.c                        0x00000000   Number         0  rred.o ABSOLUTE
    ../mathlib/sin.c                         0x00000000   Number         0  sin.o ABSOLUTE
    ../mathlib/sin.c                         0x00000000   Number         0  sin_x.o ABSOLUTE
    ../mathlib/sin_i.c                       0x00000000   Number         0  sin_i.o ABSOLUTE
    ../mathlib/sin_i.c                       0x00000000   Number         0  sin_i_x.o ABSOLUTE
    ../mathlib/sqrt.c                        0x00000000   Number         0  sqrt_x.o ABSOLUTE
    ../mathlib/sqrt.c                        0x00000000   Number         0  sqrt.o ABSOLUTE
    ../mathlib/sqrtf.c                       0x00000000   Number         0  sqrtf.o ABSOLUTE
    ../mathlib/sqrtf.c                       0x00000000   Number         0  sqrtf_x.o ABSOLUTE
    ..\Drivers\STM32F7xx_HAL_Driver\Src\stm32f7xx_hal.c 0x00000000   Number         0  stm32f7xx_hal.o ABSOLUTE
    ..\Drivers\STM32F7xx_HAL_Driver\Src\stm32f7xx_hal_adc.c 0x00000000   Number         0  stm32f7xx_hal_adc.o ABSOLUTE
    ..\Drivers\STM32F7xx_HAL_Driver\Src\stm32f7xx_hal_adc_ex.c 0x00000000   Number         0  stm32f7xx_hal_adc_ex.o ABSOLUTE
    ..\Drivers\STM32F7xx_HAL_Driver\Src\stm32f7xx_hal_cortex.c 0x00000000   Number         0  stm32f7xx_hal_cortex.o ABSOLUTE
    ..\Drivers\STM32F7xx_HAL_Driver\Src\stm32f7xx_hal_dma.c 0x00000000   Number         0  stm32f7xx_hal_dma.o ABSOLUTE
    ..\Drivers\STM32F7xx_HAL_Driver\Src\stm32f7xx_hal_dma_ex.c 0x00000000   Number         0  stm32f7xx_hal_dma_ex.o ABSOLUTE
    ..\Drivers\STM32F7xx_HAL_Driver\Src\stm32f7xx_hal_flash.c 0x00000000   Number         0  stm32f7xx_hal_flash.o ABSOLUTE
    ..\Drivers\STM32F7xx_HAL_Driver\Src\stm32f7xx_hal_flash_ex.c 0x00000000   Number         0  stm32f7xx_hal_flash_ex.o ABSOLUTE
    ..\Drivers\STM32F7xx_HAL_Driver\Src\stm32f7xx_hal_gpio.c 0x00000000   Number         0  stm32f7xx_hal_gpio.o ABSOLUTE
    ..\Drivers\STM32F7xx_HAL_Driver\Src\stm32f7xx_hal_i2c.c 0x00000000   Number         0  stm32f7xx_hal_i2c.o ABSOLUTE
    ..\Drivers\STM32F7xx_HAL_Driver\Src\stm32f7xx_hal_i2c_ex.c 0x00000000   Number         0  stm32f7xx_hal_i2c_ex.o ABSOLUTE
    ..\Drivers\STM32F7xx_HAL_Driver\Src\stm32f7xx_hal_pwr.c 0x00000000   Number         0  stm32f7xx_hal_pwr.o ABSOLUTE
    ..\Drivers\STM32F7xx_HAL_Driver\Src\stm32f7xx_hal_pwr_ex.c 0x00000000   Number         0  stm32f7xx_hal_pwr_ex.o ABSOLUTE
    ..\Drivers\STM32F7xx_HAL_Driver\Src\stm32f7xx_hal_qspi.c 0x00000000   Number         0  stm32f7xx_hal_qspi.o ABSOLUTE
    ..\Drivers\STM32F7xx_HAL_Driver\Src\stm32f7xx_hal_rcc.c 0x00000000   Number         0  stm32f7xx_hal_rcc.o ABSOLUTE
    ..\Drivers\STM32F7xx_HAL_Driver\Src\stm32f7xx_hal_rcc_ex.c 0x00000000   Number         0  stm32f7xx_hal_rcc_ex.o ABSOLUTE
    ..\Drivers\STM32F7xx_HAL_Driver\Src\stm32f7xx_hal_rtc.c 0x00000000   Number         0  stm32f7xx_hal_rtc.o ABSOLUTE
    ..\Drivers\STM32F7xx_HAL_Driver\Src\stm32f7xx_hal_rtc_ex.c 0x00000000   Number         0  stm32f7xx_hal_rtc_ex.o ABSOLUTE
    ..\Drivers\STM32F7xx_HAL_Driver\Src\stm32f7xx_hal_spi.c 0x00000000   Number         0  stm32f7xx_hal_spi.o ABSOLUTE
    ..\Drivers\STM32F7xx_HAL_Driver\Src\stm32f7xx_hal_tim.c 0x00000000   Number         0  stm32f7xx_hal_tim.o ABSOLUTE
    ..\Drivers\STM32F7xx_HAL_Driver\Src\stm32f7xx_hal_tim_ex.c 0x00000000   Number         0  stm32f7xx_hal_tim_ex.o ABSOLUTE
    ..\Drivers\STM32F7xx_HAL_Driver\Src\stm32f7xx_hal_uart.c 0x00000000   Number         0  stm32f7xx_hal_uart.o ABSOLUTE
    ..\Src\Comm_Library_Source\CommConfig.c  0x00000000   Number         0  commconfig.o ABSOLUTE
    ..\Src\Comm_Library_Source\DataParserMerger.c 0x00000000   Number         0  dataparsermerger.o ABSOLUTE
    ..\Src\Comm_Library_Source\Modbus_MasterSlave.c 0x00000000   Number         0  modbus_masterslave.o ABSOLUTE
    ..\Src\Comm_Library_Source\SPI_MasterSlave.c 0x00000000   Number         0  spi_masterslave.o ABSOLUTE
    ..\Src\Comm_Library_Source\UART_MasterSlave.c 0x00000000   Number         0  uart_masterslave.o ABSOLUTE
    ..\Src\Comm_Library_Source\fputc_debug.c 0x00000000   Number         0  fputc_debug.o ABSOLUTE
    ..\Src\adc.c                             0x00000000   Number         0  adc.o ABSOLUTE
    ..\Src\dma.c                             0x00000000   Number         0  dma.o ABSOLUTE
    ..\Src\gpio.c                            0x00000000   Number         0  gpio.o ABSOLUTE
    ..\Src\main.c                            0x00000000   Number         0  main.o ABSOLUTE
    ..\Src\quadspi.c                         0x00000000   Number         0  quadspi.o ABSOLUTE
    ..\Src\rtc.c                             0x00000000   Number         0  rtc.o ABSOLUTE
    ..\Src\spi.c                             0x00000000   Number         0  spi.o ABSOLUTE
    ..\Src\stm32f7xx_hal_msp.c               0x00000000   Number         0  stm32f7xx_hal_msp.o ABSOLUTE
    ..\Src\stm32f7xx_it.c                    0x00000000   Number         0  stm32f7xx_it.o ABSOLUTE
    ..\Src\system_stm32f7xx.c                0x00000000   Number         0  system_stm32f7xx.o ABSOLUTE
    ..\Src\tim.c                             0x00000000   Number         0  tim.o ABSOLUTE
    ..\Src\usart.c                           0x00000000   Number         0  usart.o ABSOLUTE
    ..\\Src\\Comm_Library_Source\\DataParserMerger.c 0x00000000   Number         0  dataparsermerger.o ABSOLUTE
    ..\\Src\\Comm_Library_Source\\Modbus_MasterSlave.c 0x00000000   Number         0  modbus_masterslave.o ABSOLUTE
    ..\\Src\\Comm_Library_Source\\SPI_MasterSlave.c 0x00000000   Number         0  spi_masterslave.o ABSOLUTE
    ..\\Src\\Comm_Library_Source\\UART_MasterSlave.c 0x00000000   Number         0  uart_masterslave.o ABSOLUTE
    ..\\Src\\Comm_Library_Source\\fputc_debug.c 0x00000000   Number         0  fputc_debug.o ABSOLUTE
    boardIO.c                                0x00000000   Number         0  boardio.o ABSOLUTE
    boardIO.c                                0x00000000   Number         0  boardio.o ABSOLUTE
    commParams.c                             0x00000000   Number         0  commparams.o ABSOLUTE
    commParams.c                             0x00000000   Number         0  commparams.o ABSOLUTE
    configParams.c                           0x00000000   Number         0  configparams.o ABSOLUTE
    conversion.c                             0x00000000   Number         0  conversion.o ABSOLUTE
    conversion.c                             0x00000000   Number         0  conversion.o ABSOLUTE
    cs_handles.c                             0x00000000   Number         0  cs_handles.o ABSOLUTE
    dc.s                                     0x00000000   Number         0  dc.o ABSOLUTE
    fc27.c                                   0x00000000   Number         0  fc27.o ABSOLUTE
    fc37.c                                   0x00000000   Number         0  fc37.o ABSOLUTE
    fc37.c                                   0x00000000   Number         0  fc37.o ABSOLUTE
    fc46.c                                   0x00000000   Number         0  fc46.o ABSOLUTE
    fc49.c                                   0x00000000   Number         0  fc49.o ABSOLUTE
    fc50.c                                   0x00000000   Number         0  fc50.o ABSOLUTE
    fc50N.c                                  0x00000000   Number         0  fc50n.o ABSOLUTE
    fc51.c                                   0x00000000   Number         0  fc51.o ABSOLUTE
    fc51N.c                                  0x00000000   Number         0  fc51n.o ABSOLUTE
    fc59.c                                   0x00000000   Number         0  fc59.o ABSOLUTE
    fcBF.c                                   0x00000000   Number         0  fcbf.o ABSOLUTE
    fcBF.c                                   0x00000000   Number         0  fcbf.o ABSOLUTE
    fcPVP.c                                  0x00000000   Number         0  fcpvp.o ABSOLUTE
    fcUNB.c                                  0x00000000   Number         0  fcunb.o ABSOLUTE
    handlers.s                               0x00000000   Number         0  handlers.o ABSOLUTE
    init.s                                   0x00000000   Number         0  init.o ABSOLUTE
    initFunctions.c                          0x00000000   Number         0  initfunctions.o ABSOLUTE
    init_protection.c                        0x00000000   Number         0  init_protection.o ABSOLUTE
    libraries\measurement_functions.c        0x00000000   Number         0  measurement_functions.o ABSOLUTE
    libraries\protection_functions.c         0x00000000   Number         0  protection_functions.o ABSOLUTE
    main_flow.c                              0x00000000   Number         0  main_flow.o ABSOLUTE
    main_flow.c                              0x00000000   Number         0  main_flow.o ABSOLUTE
    pickup_handles.c                         0x00000000   Number         0  pickup_handles.o ABSOLUTE
    pickup_handles.c                         0x00000000   Number         0  pickup_handles.o ABSOLUTE
    powerSysData.c                           0x00000000   Number         0  powersysdata.o ABSOLUTE
    spectra.c                                0x00000000   Number         0  spectra.o ABSOLUTE
    startup_stm32f767xx.s                    0x00000000   Number         0  startup_stm32f767xx.o ABSOLUTE
    trueRMS.c                                0x00000000   Number         0  truerms.o ABSOLUTE
    RESET                                    0x08000000   Section      504  startup_stm32f767xx.o(RESET)
    .ARM.Collect$$$$00000000                 0x080001f8   Section        0  entry.o(.ARM.Collect$$$$00000000)
    .ARM.Collect$$$$00000001                 0x080001f8   Section        4  entry2.o(.ARM.Collect$$$$00000001)
    .ARM.Collect$$$$00000004                 0x080001fc   Section        4  entry5.o(.ARM.Collect$$$$00000004)
    .ARM.Collect$$$$00000008                 0x08000200   Section        0  entry7b.o(.ARM.Collect$$$$00000008)
    .ARM.Collect$$$$0000000A                 0x08000200   Section        0  entry8b.o(.ARM.Collect$$$$0000000A)
    .ARM.Collect$$$$0000000B                 0x08000200   Section        8  entry9a.o(.ARM.Collect$$$$0000000B)
    .ARM.Collect$$$$0000000D                 0x08000208   Section        0  entry10a.o(.ARM.Collect$$$$0000000D)
    .ARM.Collect$$$$0000000F                 0x08000208   Section        0  entry11a.o(.ARM.Collect$$$$0000000F)
    .ARM.Collect$$$$00002712                 0x08000208   Section        4  entry2.o(.ARM.Collect$$$$00002712)
    __lit__00000000                          0x08000208   Data           4  entry2.o(.ARM.Collect$$$$00002712)
    .text                                    0x0800020c   Section       36  startup_stm32f767xx.o(.text)
    $v0                                      0x0800020c   Number         0  startup_stm32f767xx.o(.text)
    .text                                    0x08000230   Section        0  iusefp.o(.text)
    .text                                    0x08000230   Section        0  fpstat.o(.text)
    .text                                    0x08000234   Section       36  init.o(.text)
    .text                                    0x08000258   Section        0  __dczerorl2.o(.text)
    i.ADC_MultiModeDMAConvCplt               0x080002ae   Section        0  stm32f7xx_hal_adc_ex.o(i.ADC_MultiModeDMAConvCplt)
    ADC_MultiModeDMAConvCplt                 0x080002af   Thumb Code    96  stm32f7xx_hal_adc_ex.o(i.ADC_MultiModeDMAConvCplt)
    i.ADC_MultiModeDMAError                  0x0800030e   Section        0  stm32f7xx_hal_adc_ex.o(i.ADC_MultiModeDMAError)
    ADC_MultiModeDMAError                    0x0800030f   Thumb Code    18  stm32f7xx_hal_adc_ex.o(i.ADC_MultiModeDMAError)
    i.ADC_MultiModeDMAHalfConvCplt           0x08000320   Section        0  stm32f7xx_hal_adc_ex.o(i.ADC_MultiModeDMAHalfConvCplt)
    ADC_MultiModeDMAHalfConvCplt             0x08000321   Thumb Code     6  stm32f7xx_hal_adc_ex.o(i.ADC_MultiModeDMAHalfConvCplt)
    i.BusFault_Handler                       0x08000326   Section        0  stm32f7xx_it.o(i.BusFault_Handler)
    i.DMA2_Stream0_IRQHandler                0x08000328   Section        0  stm32f7xx_it.o(i.DMA2_Stream0_IRQHandler)
    i.DMA2_Stream1_IRQHandler                0x08000334   Section        0  stm32f7xx_it.o(i.DMA2_Stream1_IRQHandler)
    i.DMA2_Stream2_IRQHandler                0x08000340   Section        0  stm32f7xx_it.o(i.DMA2_Stream2_IRQHandler)
    i.DebugMon_Handler                       0x0800034c   Section        0  stm32f7xx_it.o(i.DebugMon_Handler)
    i.EXTI15_10_IRQHandler                   0x08000350   Section        0  stm32f7xx_it.o(i.EXTI15_10_IRQHandler)
    i.HAL_ADCEx_MultiModeConfigChannel       0x08000360   Section        0  stm32f7xx_hal_adc_ex.o(i.HAL_ADCEx_MultiModeConfigChannel)
    i.HAL_ADCEx_MultiModeStart_DMA           0x080003d8   Section        0  stm32f7xx_hal_adc_ex.o(i.HAL_ADCEx_MultiModeStart_DMA)
    i.HAL_ADC_ConfigChannel                  0x08000540   Section        0  stm32f7xx_hal_adc.o(i.HAL_ADC_ConfigChannel)
    i.HAL_ADC_ConvCpltCallback               0x0800070c   Section        0  conversion.o(i.HAL_ADC_ConvCpltCallback)
    i.HAL_ADC_ConvHalfCpltCallback           0x08000940   Section        0  stm32f7xx_hal_adc.o(i.HAL_ADC_ConvHalfCpltCallback)
    i.HAL_ADC_ErrorCallback                  0x08000942   Section        0  stm32f7xx_hal_adc.o(i.HAL_ADC_ErrorCallback)
    i.HAL_ADC_Init                           0x08000944   Section        0  stm32f7xx_hal_adc.o(i.HAL_ADC_Init)
    i.HAL_ADC_MspInit                        0x08000ac0   Section        0  adc.o(i.HAL_ADC_MspInit)
    i.HAL_ADC_Start                          0x08000c5c   Section        0  stm32f7xx_hal_adc.o(i.HAL_ADC_Start)
    i.HAL_DMA_Abort_IT                       0x08000d6c   Section        0  stm32f7xx_hal_dma.o(i.HAL_DMA_Abort_IT)
    i.HAL_DMA_IRQHandler                     0x08000d90   Section        0  stm32f7xx_hal_dma.o(i.HAL_DMA_IRQHandler)
    i.HAL_DMA_Init                           0x08000f6c   Section        0  stm32f7xx_hal_dma.o(i.HAL_DMA_Init)
    i.HAL_DMA_Start_IT                       0x080010d8   Section        0  stm32f7xx_hal_dma.o(i.HAL_DMA_Start_IT)
    i.HAL_GPIO_EXTI_Callback                 0x08001174   Section        0  main.o(i.HAL_GPIO_EXTI_Callback)
    i.HAL_GPIO_EXTI_IRQHandler               0x08001178   Section        0  stm32f7xx_hal_gpio.o(i.HAL_GPIO_EXTI_IRQHandler)
    i.HAL_GPIO_Init                          0x08001190   Section        0  stm32f7xx_hal_gpio.o(i.HAL_GPIO_Init)
    i.HAL_GPIO_ReadPin                       0x080013e0   Section        0  stm32f7xx_hal_gpio.o(i.HAL_GPIO_ReadPin)
    i.HAL_GPIO_WritePin                      0x080013ea   Section        0  stm32f7xx_hal_gpio.o(i.HAL_GPIO_WritePin)
    i.HAL_GetTick                            0x080013f4   Section        0  stm32f7xx_hal.o(i.HAL_GetTick)
    i.HAL_IncTick                            0x08001400   Section        0  stm32f7xx_hal.o(i.HAL_IncTick)
    i.HAL_Init                               0x08001410   Section        0  stm32f7xx_hal.o(i.HAL_Init)
    i.HAL_InitTick                           0x08001428   Section        0  stm32f7xx_hal.o(i.HAL_InitTick)
    i.HAL_MspInit                            0x08001450   Section        0  stm32f7xx_hal_msp.o(i.HAL_MspInit)
    i.HAL_NVIC_EnableIRQ                     0x080014a8   Section        0  stm32f7xx_hal_cortex.o(i.HAL_NVIC_EnableIRQ)
    i.HAL_NVIC_SetPriority                   0x080014c0   Section        0  stm32f7xx_hal_cortex.o(i.HAL_NVIC_SetPriority)
    i.HAL_NVIC_SetPriorityGrouping           0x08001520   Section        0  stm32f7xx_hal_cortex.o(i.HAL_NVIC_SetPriorityGrouping)
    i.HAL_PWREx_EnableOverDrive              0x08001544   Section        0  stm32f7xx_hal_pwr_ex.o(i.HAL_PWREx_EnableOverDrive)
    i.HAL_QSPI_Init                          0x080015c0   Section        0  stm32f7xx_hal_qspi.o(i.HAL_QSPI_Init)
    i.HAL_QSPI_MspInit                       0x0800168c   Section        0  quadspi.o(i.HAL_QSPI_MspInit)
    i.HAL_RCCEx_PeriphCLKConfig              0x08001714   Section        0  stm32f7xx_hal_rcc_ex.o(i.HAL_RCCEx_PeriphCLKConfig)
    i.HAL_RCC_ClockConfig                    0x08001cf0   Section        0  stm32f7xx_hal_rcc.o(i.HAL_RCC_ClockConfig)
    i.HAL_RCC_GetHCLKFreq                    0x08001e98   Section        0  stm32f7xx_hal_rcc.o(i.HAL_RCC_GetHCLKFreq)
    i.HAL_RCC_GetPCLK1Freq                   0x08001ea4   Section        0  stm32f7xx_hal_rcc.o(i.HAL_RCC_GetPCLK1Freq)
    i.HAL_RCC_GetPCLK2Freq                   0x08001ec4   Section        0  stm32f7xx_hal_rcc.o(i.HAL_RCC_GetPCLK2Freq)
    i.HAL_RCC_GetSysClockFreq                0x08001ee4   Section        0  stm32f7xx_hal_rcc.o(i.HAL_RCC_GetSysClockFreq)
    i.HAL_RCC_OscConfig                      0x08001f54   Section        0  stm32f7xx_hal_rcc.o(i.HAL_RCC_OscConfig)
    i.HAL_RTC_Init                           0x08002314   Section        0  stm32f7xx_hal_rtc.o(i.HAL_RTC_Init)
    i.HAL_RTC_MspInit                        0x080023e0   Section        0  rtc.o(i.HAL_RTC_MspInit)
    i.HAL_SPI_ErrorCallback                  0x08002400   Section        0  stm32f7xx_hal_spi.o(i.HAL_SPI_ErrorCallback)
    i.HAL_SPI_IRQHandler                     0x08002404   Section        0  stm32f7xx_hal_spi.o(i.HAL_SPI_IRQHandler)
    i.HAL_SPI_Init                           0x080024fc   Section        0  stm32f7xx_hal_spi.o(i.HAL_SPI_Init)
    i.HAL_SPI_MspInit                        0x080025d0   Section        0  spi.o(i.HAL_SPI_MspInit)
    i.HAL_SPI_Transmit_IT                    0x08002634   Section        0  stm32f7xx_hal_spi.o(i.HAL_SPI_Transmit_IT)
    i.HAL_SPI_TxCpltCallback                 0x080026d4   Section        0  spi_masterslave.o(i.HAL_SPI_TxCpltCallback)
    i.HAL_SYSTICK_CLKSourceConfig            0x080026f4   Section        0  stm32f7xx_hal_cortex.o(i.HAL_SYSTICK_CLKSourceConfig)
    i.HAL_SYSTICK_Callback                   0x0800270a   Section        0  stm32f7xx_hal_cortex.o(i.HAL_SYSTICK_Callback)
    i.HAL_SYSTICK_Config                     0x0800270c   Section        0  stm32f7xx_hal_cortex.o(i.HAL_SYSTICK_Config)
    i.HAL_SYSTICK_IRQHandler                 0x08002734   Section        0  stm32f7xx_hal_cortex.o(i.HAL_SYSTICK_IRQHandler)
    i.HAL_TIMEx_BreakCallback                0x0800273c   Section        0  stm32f7xx_hal_tim_ex.o(i.HAL_TIMEx_BreakCallback)
    i.HAL_TIMEx_CommutationCallback          0x0800273e   Section        0  stm32f7xx_hal_tim_ex.o(i.HAL_TIMEx_CommutationCallback)
    i.HAL_TIMEx_MasterConfigSynchronization  0x08002740   Section        0  stm32f7xx_hal_tim_ex.o(i.HAL_TIMEx_MasterConfigSynchronization)
    i.HAL_TIM_Base_Init                      0x0800279e   Section        0  stm32f7xx_hal_tim.o(i.HAL_TIM_Base_Init)
    i.HAL_TIM_Base_MspInit                   0x080027d4   Section        0  tim.o(i.HAL_TIM_Base_MspInit)
    i.HAL_TIM_Base_Start_IT                  0x08002830   Section        0  stm32f7xx_hal_tim.o(i.HAL_TIM_Base_Start_IT)
    i.HAL_TIM_ConfigClockSource              0x08002848   Section        0  stm32f7xx_hal_tim.o(i.HAL_TIM_ConfigClockSource)
    i.HAL_TIM_IC_CaptureCallback             0x08002a1c   Section        0  stm32f7xx_hal_tim.o(i.HAL_TIM_IC_CaptureCallback)
    i.HAL_TIM_IRQHandler                     0x08002a1e   Section        0  stm32f7xx_hal_tim.o(i.HAL_TIM_IRQHandler)
    i.HAL_TIM_OC_DelayElapsedCallback        0x08002ba2   Section        0  stm32f7xx_hal_tim.o(i.HAL_TIM_OC_DelayElapsedCallback)
    i.HAL_TIM_PWM_PulseFinishedCallback      0x08002ba4   Section        0  stm32f7xx_hal_tim.o(i.HAL_TIM_PWM_PulseFinishedCallback)
    i.HAL_TIM_PeriodElapsedCallback          0x08002ba6   Section        0  stm32f7xx_hal_tim.o(i.HAL_TIM_PeriodElapsedCallback)
    i.HAL_TIM_TriggerCallback                0x08002ba8   Section        0  stm32f7xx_hal_tim.o(i.HAL_TIM_TriggerCallback)
    i.HAL_UART_ErrorCallback                 0x08002baa   Section        0  stm32f7xx_hal_uart.o(i.HAL_UART_ErrorCallback)
    i.HAL_UART_IRQHandler                    0x08002bac   Section        0  stm32f7xx_hal_uart.o(i.HAL_UART_IRQHandler)
    i.HAL_UART_Init                          0x08002e3c   Section        0  stm32f7xx_hal_uart.o(i.HAL_UART_Init)
    i.HAL_UART_MspInit                       0x08002eac   Section        0  usart.o(i.HAL_UART_MspInit)
    i.HAL_UART_Receive_IT                    0x08002f0c   Section        0  stm32f7xx_hal_uart.o(i.HAL_UART_Receive_IT)
    i.HAL_UART_RxCpltCallback                0x08002fa4   Section        0  uart_masterslave.o(i.HAL_UART_RxCpltCallback)
    i.HAL_UART_TxCpltCallback                0x08002ff4   Section        0  uart_masterslave.o(i.HAL_UART_TxCpltCallback)
    i.HardFault_Handler                      0x08003014   Section        0  stm32f7xx_it.o(i.HardFault_Handler)
    i.MX_ADC1_Init                           0x08003018   Section        0  adc.o(i.MX_ADC1_Init)
    i.MX_ADC2_Init                           0x08003110   Section        0  adc.o(i.MX_ADC2_Init)
    i.MX_ADC3_Init                           0x080031e0   Section        0  adc.o(i.MX_ADC3_Init)
    i.MX_DMA_Init                            0x080032b0   Section        0  dma.o(i.MX_DMA_Init)
    i.MX_GPIO_Init                           0x080032dc   Section        0  gpio.o(i.MX_GPIO_Init)
    i.MX_QUADSPI_Init                        0x08003514   Section        0  quadspi.o(i.MX_QUADSPI_Init)
    i.MX_RTC_Init                            0x08003568   Section        0  rtc.o(i.MX_RTC_Init)
    i.MX_SPI2_Init                           0x080035b4   Section        0  spi.o(i.MX_SPI2_Init)
    i.MX_TIM1_Init                           0x08003618   Section        0  tim.o(i.MX_TIM1_Init)
    i.MX_TIM6_Init                           0x08003698   Section        0  tim.o(i.MX_TIM6_Init)
    i.MX_USART2_UART_Init                    0x080036f8   Section        0  usart.o(i.MX_USART2_UART_Init)
    i.MemManage_Handler                      0x0800374c   Section        0  stm32f7xx_it.o(i.MemManage_Handler)
    i.NMI_Handler                            0x0800374e   Section        0  stm32f7xx_it.o(i.NMI_Handler)
    i.PendSV_Handler                         0x08003750   Section        0  stm32f7xx_it.o(i.PendSV_Handler)
    i.QSPI_WaitFlagStateUntilTimeout         0x08003752   Section        0  stm32f7xx_hal_qspi.o(i.QSPI_WaitFlagStateUntilTimeout)
    QSPI_WaitFlagStateUntilTimeout           0x08003753   Thumb Code    88  stm32f7xx_hal_qspi.o(i.QSPI_WaitFlagStateUntilTimeout)
    i.SPI2_IRQHandler                        0x080037ac   Section        0  stm32f7xx_it.o(i.SPI2_IRQHandler)
    i.SPI_DMAAbortOnError                    0x080037b8   Section        0  stm32f7xx_hal_spi.o(i.SPI_DMAAbortOnError)
    SPI_DMAAbortOnError                      0x080037b9   Thumb Code    18  stm32f7xx_hal_spi.o(i.SPI_DMAAbortOnError)
    i.SPI_EndRxTxTransaction                 0x080037ca   Section        0  stm32f7xx_hal_spi.o(i.SPI_EndRxTxTransaction)
    SPI_EndRxTxTransaction                   0x080037cb   Thumb Code    74  stm32f7xx_hal_spi.o(i.SPI_EndRxTxTransaction)
    i.SPI_TxISR_16BIT                        0x08003814   Section        0  stm32f7xx_hal_spi.o(i.SPI_TxISR_16BIT)
    SPI_TxISR_16BIT                          0x08003815   Thumb Code   104  stm32f7xx_hal_spi.o(i.SPI_TxISR_16BIT)
    i.SPI_TxISR_8BIT                         0x0800387c   Section        0  stm32f7xx_hal_spi.o(i.SPI_TxISR_8BIT)
    SPI_TxISR_8BIT                           0x0800387d   Thumb Code   102  stm32f7xx_hal_spi.o(i.SPI_TxISR_8BIT)
    i.SPI_WaitFifoStateUntilTimeout          0x080038e4   Section        0  stm32f7xx_hal_spi.o(i.SPI_WaitFifoStateUntilTimeout)
    SPI_WaitFifoStateUntilTimeout            0x080038e5   Thumb Code   156  stm32f7xx_hal_spi.o(i.SPI_WaitFifoStateUntilTimeout)
    i.SPI_WaitFlagStateUntilTimeout          0x08003980   Section        0  stm32f7xx_hal_spi.o(i.SPI_WaitFlagStateUntilTimeout)
    SPI_WaitFlagStateUntilTimeout            0x08003981   Thumb Code   140  stm32f7xx_hal_spi.o(i.SPI_WaitFlagStateUntilTimeout)
    i.SVC_Handler                            0x08003a0c   Section        0  stm32f7xx_it.o(i.SVC_Handler)
    i.SysTick_Handler                        0x08003a0e   Section        0  stm32f7xx_it.o(i.SysTick_Handler)
    i.SystemClock_Config                     0x08003a24   Section        0  main.o(i.SystemClock_Config)
    i.SystemInit                             0x08003ae8   Section        0  system_stm32f7xx.o(i.SystemInit)
    i.TIM1_UP_TIM10_IRQHandler               0x08003b48   Section        0  stm32f7xx_it.o(i.TIM1_UP_TIM10_IRQHandler)
    i.TIM_Base_SetConfig                     0x08003b54   Section        0  stm32f7xx_hal_tim.o(i.TIM_Base_SetConfig)
    i.UART_AdvFeatureConfig                  0x08003c1c   Section        0  stm32f7xx_hal_uart.o(i.UART_AdvFeatureConfig)
    i.UART_CheckIdleState                    0x08003cf6   Section        0  stm32f7xx_hal_uart.o(i.UART_CheckIdleState)
    i.UART_DMAAbortOnError                   0x08003d3a   Section        0  stm32f7xx_hal_uart.o(i.UART_DMAAbortOnError)
    UART_DMAAbortOnError                     0x08003d3b   Thumb Code    20  stm32f7xx_hal_uart.o(i.UART_DMAAbortOnError)
    i.UART_SetConfig                         0x08003d50   Section        0  stm32f7xx_hal_uart.o(i.UART_SetConfig)
    i.UART_WaitOnFlagUntilTimeout            0x0800400c   Section        0  stm32f7xx_hal_uart.o(i.UART_WaitOnFlagUntilTimeout)
    i.USART2_IRQHandler                      0x08004084   Section        0  stm32f7xx_it.o(i.USART2_IRQHandler)
    i.UsageFault_Handler                     0x08004090   Section        0  stm32f7xx_it.o(i.UsageFault_Handler)
    i._Error_Handler                         0x08004092   Section        0  main.o(i._Error_Handler)
    i.__ARM_fpclassify                       0x08004094   Section        0  fpclassify.o(i.__ARM_fpclassify)
    i.__ARM_fpclassifyf                      0x080040c4   Section        0  fpclassifyf.o(i.__ARM_fpclassifyf)
    i.__hardfp_atan                          0x080040f0   Section        0  atan.o(i.__hardfp_atan)
    i.__hardfp_atan2                         0x080042f0   Section        0  atan2.o(i.__hardfp_atan2)
    i.__hardfp_atan2f                        0x080044b0   Section        0  atan2f.o(i.__hardfp_atan2f)
    i.__hardfp_powf                          0x08004708   Section        0  powf.o(i.__hardfp_powf)
    i.__hardfp_sin                           0x08004d60   Section        0  sin.o(i.__hardfp_sin)
    i.__hardfp_sqrt                          0x08004e10   Section        0  sqrt.o(i.__hardfp_sqrt)
    i.__hardfp_sqrtf                         0x08004e76   Section        0  sqrtf.o(i.__hardfp_sqrtf)
    i.__ieee754_rem_pio2                     0x08004eb0   Section        0  rred.o(i.__ieee754_rem_pio2)
    i.__kernel_cos                           0x080051c0   Section        0  cos_i.o(i.__kernel_cos)
    i.__kernel_poly                          0x080052a0   Section        0  poly.o(i.__kernel_poly)
    i.__kernel_sin                           0x08005310   Section        0  sin_i.o(i.__kernel_sin)
    i.__mathlib_dbl_infnan                   0x080053b8   Section        0  dunder.o(i.__mathlib_dbl_infnan)
    i.__mathlib_dbl_infnan2                  0x080053be   Section        0  dunder.o(i.__mathlib_dbl_infnan2)
    i.__mathlib_dbl_invalid                  0x080053c8   Section        0  dunder.o(i.__mathlib_dbl_invalid)
    i.__mathlib_dbl_underflow                0x080053e0   Section        0  dunder.o(i.__mathlib_dbl_underflow)
    i.__mathlib_flt_divzero                  0x080053f8   Section        0  funder.o(i.__mathlib_flt_divzero)
    i.__mathlib_flt_infnan2                  0x08005410   Section        0  funder.o(i.__mathlib_flt_infnan2)
    i.__mathlib_flt_invalid                  0x08005418   Section        0  funder.o(i.__mathlib_flt_invalid)
    i.__mathlib_flt_overflow                 0x08005428   Section        0  funder.o(i.__mathlib_flt_overflow)
    i.__mathlib_flt_underflow                0x08005438   Section        0  funder.o(i.__mathlib_flt_underflow)
    i.__scatterload_copy                     0x08005448   Section       14  handlers.o(i.__scatterload_copy)
    i.__scatterload_null                     0x08005456   Section        2  handlers.o(i.__scatterload_null)
    i.__scatterload_zeroinit                 0x08005458   Section       14  handlers.o(i.__scatterload_zeroinit)
    i.__set_errno                            0x08005468   Section        0  errno.o(i.__set_errno)
    i.atan                                   0x08005474   Section        0  atan.o(i.atan)
    i.boardIO                                0x08005484   Section        0  boardio.o(i.boardIO)
    i.cs_PQ_combination                      0x08005680   Section        0  cs_handles.o(i.cs_PQ_combination)
    i.cs_computations                        0x08005728   Section        0  measurement_functions.o(i.cs_computations)
    i.cs_generation                          0x08005880   Section        0  measurement_functions.o(i.cs_generation)
    i.cs_handles                             0x08005934   Section        0  cs_handles.o(i.cs_handles)
    i.dpm_mergeDWord                         0x08005c9c   Section        0  dataparsermerger.o(i.dpm_mergeDWord)
    i.dpm_mergeFloat                         0x08005d08   Section        0  dataparsermerger.o(i.dpm_mergeFloat)
    i.dpm_parseDWord                         0x08005d68   Section        0  dataparsermerger.o(i.dpm_parseDWord)
    i.dpm_parseFloat                         0x08005dbc   Section        0  dataparsermerger.o(i.dpm_parseFloat)
    i.fabs                                   0x08005e1c   Section        0  fabs.o(i.fabs)
    i.fc27                                   0x08005e34   Section        0  protection_functions.o(i.fc27)
    i.fc27_all                               0x08005eb0   Section        0  fc27.o(i.fc27_all)
    i.fc27_init                              0x08005fa0   Section        0  fc27.o(i.fc27_init)
    i.fc37                                   0x08005fc0   Section        0  protection_functions.o(i.fc37)
    i.fc37_all                               0x08006034   Section        0  fc37.o(i.fc37_all)
    i.fc37_init                              0x0800619c   Section        0  fc37.o(i.fc37_init)
    i.fc46_all                               0x080061bc   Section        0  fc46.o(i.fc46_all)
    i.fc46_init                              0x08006244   Section        0  fc46.o(i.fc46_init)
    i.fc46d                                  0x08006288   Section        0  protection_functions.o(i.fc46d)
    i.fc46i                                  0x080063e0   Section        0  protection_functions.o(i.fc46i)
    i.fc49                                   0x0800652c   Section        0  protection_functions.o(i.fc49)
    i.fc49_all                               0x08006578   Section        0  fc49.o(i.fc49_all)
    i.fc49_init                              0x08006694   Section        0  fc49.o(i.fc49_init)
    i.fc50                                   0x080066ec   Section        0  protection_functions.o(i.fc50)
    i.fc50N_all                              0x080067d0   Section        0  fc50n.o(i.fc50N_all)
    i.fc50N_init                             0x08006860   Section        0  fc50n.o(i.fc50N_init)
    i.fc50_all                               0x08006880   Section        0  fc50.o(i.fc50_all)
    i.fc50_init                              0x08006ad8   Section        0  fc50.o(i.fc50_init)
    i.fc51                                   0x08006b08   Section        0  protection_functions.o(i.fc51)
    i.fc51N_all                              0x08006bf8   Section        0  fc51n.o(i.fc51N_all)
    i.fc51N_init                             0x08006c40   Section        0  fc51n.o(i.fc51N_init)
    i.fc51_all                               0x08006c7c   Section        0  fc51.o(i.fc51_all)
    i.fc51_init                              0x08006d70   Section        0  fc51.o(i.fc51_init)
    i.fc59                                   0x08006dbc   Section        0  protection_functions.o(i.fc59)
    i.fc59_all                               0x08006e1c   Section        0  fc59.o(i.fc59_all)
    i.fc59_init                              0x08006ed0   Section        0  fc59.o(i.fc59_init)
    i.fcBF                                   0x08006eec   Section        0  protection_functions.o(i.fcBF)
    i.fcBF_all                               0x08007004   Section        0  fcbf.o(i.fcBF_all)
    i.fcBF_init                              0x080070a8   Section        0  fcbf.o(i.fcBF_init)
    i.fcPVP_all                              0x080070c4   Section        0  fcpvp.o(i.fcPVP_all)
    i.fcPVP_init                             0x08007274   Section        0  fcpvp.o(i.fcPVP_init)
    i.fcPVPd                                 0x08007290   Section        0  protection_functions.o(i.fcPVPd)
    i.fcPVPi                                 0x08007300   Section        0  protection_functions.o(i.fcPVPi)
    i.fcUNB_all                              0x080073c0   Section        0  fcunb.o(i.fcUNB_all)
    i.fcUNB_init                             0x0800756c   Section        0  fcunb.o(i.fcUNB_init)
    i.fcUNBd                                 0x080075a0   Section        0  protection_functions.o(i.fcUNBd)
    i.fcUNBi                                 0x08007610   Section        0  protection_functions.o(i.fcUNBi)
    i.initFunctions                          0x080076e8   Section        0  initfunctions.o(i.initFunctions)
    i.init_conversion                        0x08007724   Section        0  conversion.o(i.init_conversion)
    i.init_protection                        0x080077f8   Section        0  init_protection.o(i.init_protection)
    i.main                                   0x08007f24   Section        0  main.o(i.main)
    i.main_flow                              0x08008064   Section        0  main_flow.o(i.main_flow)
    i.maxSelector_3p                         0x080080aa   Section        0  protection_functions.o(i.maxSelector_3p)
    i.off_delay                              0x080080b4   Section        0  protection_functions.o(i.off_delay)
    i.on_delay                               0x080080f6   Section        0  protection_functions.o(i.on_delay)
    i.on_off_delay                           0x08008136   Section        0  protection_functions.o(i.on_off_delay)
    i.peak_detect_rms                        0x08008164   Section        0  measurement_functions.o(i.peak_detect_rms)
    i.pick_trip_reset_handles                0x08008210   Section        0  pickup_handles.o(i.pick_trip_reset_handles)
    i.pick_up_handles                        0x08008224   Section        0  pickup_handles.o(i.pick_up_handles)
    i.pullDataFromMaster                     0x08008b94   Section        0  configparams.o(i.pullDataFromMaster)
    i.pushDataToMaster                       0x0800902c   Section        0  commparams.o(i.pushDataToMaster)
    i.pvp_curve                              0x080096e4   Section        0  protection_functions.o(i.pvp_curve)
    i.pvp_filter                             0x08009838   Section        0  measurement_functions.o(i.pvp_filter)
    i.reset_handles                          0x080098ac   Section        0  pickup_handles.o(i.reset_handles)
    i.spi_initComApp                         0x08009d68   Section        0  spi_masterslave.o(i.spi_initComApp)
    i.spi_runComApp                          0x08009d6c   Section        0  spi_masterslave.o(i.spi_runComApp)
    i.spi_sysTickCallApp                     0x0800a0e4   Section        0  spi_masterslave.o(i.spi_sysTickCallApp)
    i.sym_comp                               0x0800a128   Section        0  measurement_functions.o(i.sym_comp)
    i.sym_mag                                0x0800a1b0   Section        0  measurement_functions.o(i.sym_mag)
    i.thermal_status                         0x0800a33c   Section        0  measurement_functions.o(i.thermal_status)
    i.trip_handles                           0x0800a3b4   Section        0  pickup_handles.o(i.trip_handles)
    i.trueRMS                                0x0800aab4   Section        0  truerms.o(i.trueRMS)
    i.true_rms                               0x0800abf4   Section        0  measurement_functions.o(i.true_rms)
    i.uart_initComApp                        0x0800ac64   Section        0  uart_masterslave.o(i.uart_initComApp)
    i.uart_runComApp                         0x0800ac78   Section        0  uart_masterslave.o(i.uart_runComApp)
    i.uart_sysTickCallApp                    0x0800adfc   Section        0  uart_masterslave.o(i.uart_sysTickCallApp)
    .constdata                               0x0800ae3c   Section        8  stm32f7xx_hal_dma.o(.constdata)
    flagBitshiftOffset                       0x0800ae3c   Data           8  stm32f7xx_hal_dma.o(.constdata)
    .constdata                               0x0800ae44   Section       16  system_stm32f7xx.o(.constdata)
    .constdata                               0x0800ae54   Section        8  system_stm32f7xx.o(.constdata)
    .constdata                               0x0800ae5c   Section       16  fc50.o(.constdata)
    .constdata                               0x0800ae6c   Section       16  fc50n.o(.constdata)
    .constdata                               0x0800ae7c   Section       20  fc51.o(.constdata)
    .constdata                               0x0800ae90   Section       20  fc51n.o(.constdata)
    .constdata                               0x0800aea4   Section       12  fc27.o(.constdata)
    .constdata                               0x0800aeb0   Section       12  fc59.o(.constdata)
    .constdata                               0x0800aebc   Section       36  fc46.o(.constdata)
    .constdata                               0x0800aee0   Section       24  fc49.o(.constdata)
    .constdata                               0x0800aef8   Section       24  fcbf.o(.constdata)
    .constdata                               0x0800af10   Section       12  fc37.o(.constdata)
    .constdata                               0x0800af1c   Section       20  fcunb.o(.constdata)
    .constdata                               0x0800af30   Section       32  fcpvp.o(.constdata)
    .constdata                               0x0800af50   Section      320  powf.o(.constdata)
    table                                    0x0800af50   Data         128  powf.o(.constdata)
    powersof2to1over16top                    0x0800afd0   Data          64  powf.o(.constdata)
    powersof2to1over16bot                    0x0800b010   Data          64  powf.o(.constdata)
    powersof2to1over16all                    0x0800b050   Data          64  powf.o(.constdata)
    .constdata                               0x0800b090   Section      152  atan.o(.constdata)
    atanhi                                   0x0800b090   Data          32  atan.o(.constdata)
    atanlo                                   0x0800b0b0   Data          32  atan.o(.constdata)
    aTodd                                    0x0800b0d0   Data          40  atan.o(.constdata)
    aTeven                                   0x0800b0f8   Data          48  atan.o(.constdata)
    .constdata                               0x0800b128   Section       48  cos_i.o(.constdata)
    C                                        0x0800b128   Data          48  cos_i.o(.constdata)
    .constdata                               0x0800b158   Section        8  qnan.o(.constdata)
    .constdata                               0x0800b160   Section      200  rred.o(.constdata)
    pio2s                                    0x0800b160   Data          48  rred.o(.constdata)
    twooverpi                                0x0800b190   Data         152  rred.o(.constdata)
    .constdata                               0x0800b228   Section       40  sin_i.o(.constdata)
    S                                        0x0800b228   Data          40  sin_i.o(.constdata)
    .data                                    0x20000000   Section        1  main.o(.data)
    .data                                    0x20000004   Section        4  stm32f7xx_hal.o(.data)
    .data                                    0x20000008   Section        4  system_stm32f7xx.o(.data)
    .data                                    0x2000000c   Section      108  init_protection.o(.data)
    .data                                    0x20000078   Section       24  fc27.o(.data)
    cs_qual                                  0x20000078   Data           1  fc27.o(.data)
    cs_counter                               0x2000007c   Data           4  fc27.o(.data)
    .data                                    0x20000090   Section        1  fc46.o(.data)
    counter                                  0x20000090   Data           1  fc46.o(.data)
    .data                                    0x20000094   Section       56  fc49.o(.data)
    .data                                    0x200000cc   Section       60  fc37.o(.data)
    current_checked                          0x200000cc   Data           1  fc37.o(.data)
    inhibit_enabled                          0x200000cd   Data           1  fc37.o(.data)
    pick_current_counter                     0x200000d0   Data           4  fc37.o(.data)
    inhibit_counter                          0x200000d4   Data           4  fc37.o(.data)
    .data                                    0x20000108   Section       24  fcunb.o(.data)
    counter                                  0x20000109   Data           1  fcunb.o(.data)
    .data                                    0x20000120   Section       40  fcpvp.o(.data)
    counter                                  0x20000120   Data           4  fcpvp.o(.data)
    .data                                    0x20000148   Section        2  pickup_handles.o(.data)
    pick_up_counter                          0x20000149   Data           1  pickup_handles.o(.data)
    .data                                    0x2000014c   Section      424  cs_handles.o(.data)
    .data                                    0x200002f4   Section        1  truerms.o(.data)
    counter                                  0x200002f4   Data           1  truerms.o(.data)
    .data                                    0x200002f8   Section       20  conversion.o(.data)
    count                                    0x20000300   Data           4  conversion.o(.data)
    sum                                      0x20000304   Data           4  conversion.o(.data)
    x                                        0x20000308   Data           4  conversion.o(.data)
    .data                                    0x2000030c   Section        4  conversion.o(.data)
    .data                                    0x20000310   Section        8  boardio.o(.data)
    .data                                    0x20000318   Section        4  dataparsermerger.o(.data)
    .data                                    0x2000031c   Section       12  configparams.o(.data)
    .data                                    0x20000328   Section        4  errno.o(.data)
    _errno                                   0x20000328   Data           4  errno.o(.data)
    .bss                                     0x2000032c   Section      128  tim.o(.bss)
    .bss                                     0x200003ac   Section       32  rtc.o(.bss)
    .bss                                     0x200003cc   Section       76  quadspi.o(.bss)
    .bss                                     0x20000418   Section      504  adc.o(.bss)
    .bss                                     0x20000610   Section       60  main.o(.bss)
    .bss                                     0x2000064c   Section      112  usart.o(.bss)
    .bss                                     0x200006bc   Section      100  spi.o(.bss)
    .bss                                     0x20000720   Section      116  init_protection.o(.bss)
    .bss                                     0x20000794   Section      312  fc50.o(.bss)
    .bss                                     0x200008cc   Section       84  fc50n.o(.bss)
    .bss                                     0x20000920   Section      112  fc51.o(.bss)
    .bss                                     0x20000990   Section       32  fc51n.o(.bss)
    .bss                                     0x200009b0   Section       24  fc27.o(.bss)
    .bss                                     0x200009c8   Section       96  fc59.o(.bss)
    .bss                                     0x20000a28   Section       68  fc46.o(.bss)
    .bss                                     0x20000a6c   Section       40  fc49.o(.bss)
    .bss                                     0x20000a94   Section       36  fcbf.o(.bss)
    .bss                                     0x20000ab8   Section       24  fc37.o(.bss)
    .bss                                     0x20000ad0   Section      268  fcunb.o(.bss)
    UNBa_buffer                              0x20000b08   Data         100  fcunb.o(.bss)
    UNBb_buffer                              0x20000b6c   Data         100  fcunb.o(.bss)
    .bss                                     0x20000bdc   Section     1316  fcpvp.o(.bss)
    peakBuffer                               0x20000c30   Data        1200  fcpvp.o(.bss)
    .bss                                     0x20001100   Section      296  pickup_handles.o(.bss)
    pick_buffer                              0x20001130   Data         248  pickup_handles.o(.bss)
    .bss                                     0x20001228   Section     5168  cs_handles.o(.bss)
    .bss                                     0x20002658   Section     3120  truerms.o(.bss)
    .bss                                     0x20003288   Section     1104  spectra.o(.bss)
    .bss                                     0x200036d8   Section       12  spectra.o(.bss)
    .bss                                     0x200036e4   Section      288  conversion.o(.bss)
    .bss                                     0x20003804   Section       36  powersysdata.o(.bss)
    .bss                                     0x20003828   Section     6032  spi_masterslave.o(.bss)
    .bss                                     0x20004fb8   Section     3008  uart_masterslave.o(.bss)
    STACK                                    0x20005b78   Section     1024  startup_stm32f767xx.o(STACK)

    Global Symbols

    Symbol Name                              Value     Ov Type        Size  Object(Section)

    BuildAttributes$$THM_ISAv4$E$P$D$K$B$S$7EM$VFPv5_D16$PE$PLD8$A:L22UL41UL21$X:L11$S22US41US21$IEEE1$IW$USESV6$~STKCKD$USESV7$~SHL$OTIME$ROPI$IEEEX$EBA8$MICROLIB$REQ8$PRES8$EABIv2 0x00000000   Number         0  anon$$obj.o ABSOLUTE
    __ARM_use_no_argv                        0x00000000   Number         0  main.o ABSOLUTE
    __cpp_initialize__aeabi_                  - Undefined Weak Reference
    __cxa_finalize                            - Undefined Weak Reference
    _clock_init                               - Undefined Weak Reference
    _microlib_exit                            - Undefined Weak Reference
    __Vectors_Size                           0x000001f8   Number         0  startup_stm32f767xx.o ABSOLUTE
    __Vectors                                0x08000000   Data           4  startup_stm32f767xx.o(RESET)
    __Vectors_End                            0x080001f8   Data           0  startup_stm32f767xx.o(RESET)
    __main                                   0x080001f9   Thumb Code     0  entry.o(.ARM.Collect$$$$00000000)
    _main_stk                                0x080001f9   Thumb Code     0  entry2.o(.ARM.Collect$$$$00000001)
    _main_scatterload                        0x080001fd   Thumb Code     0  entry5.o(.ARM.Collect$$$$00000004)
    __main_after_scatterload                 0x08000201   Thumb Code     0  entry5.o(.ARM.Collect$$$$00000004)
    _main_clock                              0x08000201   Thumb Code     0  entry7b.o(.ARM.Collect$$$$00000008)
    _main_cpp_init                           0x08000201   Thumb Code     0  entry8b.o(.ARM.Collect$$$$0000000A)
    _main_init                               0x08000201   Thumb Code     0  entry9a.o(.ARM.Collect$$$$0000000B)
    __rt_final_cpp                           0x08000209   Thumb Code     0  entry10a.o(.ARM.Collect$$$$0000000D)
    __rt_final_exit                          0x08000209   Thumb Code     0  entry11a.o(.ARM.Collect$$$$0000000F)
    Reset_Handler                            0x0800020d   Thumb Code     8  startup_stm32f767xx.o(.text)
    ADC_IRQHandler                           0x08000227   Thumb Code     0  startup_stm32f767xx.o(.text)
    CAN1_RX0_IRQHandler                      0x08000227   Thumb Code     0  startup_stm32f767xx.o(.text)
    CAN1_RX1_IRQHandler                      0x08000227   Thumb Code     0  startup_stm32f767xx.o(.text)
    CAN1_SCE_IRQHandler                      0x08000227   Thumb Code     0  startup_stm32f767xx.o(.text)
    CAN1_TX_IRQHandler                       0x08000227   Thumb Code     0  startup_stm32f767xx.o(.text)
    CAN2_RX0_IRQHandler                      0x08000227   Thumb Code     0  startup_stm32f767xx.o(.text)
    CAN2_RX1_IRQHandler                      0x08000227   Thumb Code     0  startup_stm32f767xx.o(.text)
    CAN2_SCE_IRQHandler                      0x08000227   Thumb Code     0  startup_stm32f767xx.o(.text)
    CAN2_TX_IRQHandler                       0x08000227   Thumb Code     0  startup_stm32f767xx.o(.text)
    CAN3_RX0_IRQHandler                      0x08000227   Thumb Code     0  startup_stm32f767xx.o(.text)
    CAN3_RX1_IRQHandler                      0x08000227   Thumb Code     0  startup_stm32f767xx.o(.text)
    CAN3_SCE_IRQHandler                      0x08000227   Thumb Code     0  startup_stm32f767xx.o(.text)
    CAN3_TX_IRQHandler                       0x08000227   Thumb Code     0  startup_stm32f767xx.o(.text)
    CEC_IRQHandler                           0x08000227   Thumb Code     0  startup_stm32f767xx.o(.text)
    DCMI_IRQHandler                          0x08000227   Thumb Code     0  startup_stm32f767xx.o(.text)
    DFSDM1_FLT0_IRQHandler                   0x08000227   Thumb Code     0  startup_stm32f767xx.o(.text)
    DFSDM1_FLT1_IRQHandler                   0x08000227   Thumb Code     0  startup_stm32f767xx.o(.text)
    DFSDM1_FLT2_IRQHandler                   0x08000227   Thumb Code     0  startup_stm32f767xx.o(.text)
    DFSDM1_FLT3_IRQHandler                   0x08000227   Thumb Code     0  startup_stm32f767xx.o(.text)
    DMA1_Stream0_IRQHandler                  0x08000227   Thumb Code     0  startup_stm32f767xx.o(.text)
    DMA1_Stream1_IRQHandler                  0x08000227   Thumb Code     0  startup_stm32f767xx.o(.text)
    DMA1_Stream2_IRQHandler                  0x08000227   Thumb Code     0  startup_stm32f767xx.o(.text)
    DMA1_Stream3_IRQHandler                  0x08000227   Thumb Code     0  startup_stm32f767xx.o(.text)
    DMA1_Stream4_IRQHandler                  0x08000227   Thumb Code     0  startup_stm32f767xx.o(.text)
    DMA1_Stream5_IRQHandler                  0x08000227   Thumb Code     0  startup_stm32f767xx.o(.text)
    DMA1_Stream6_IRQHandler                  0x08000227   Thumb Code     0  startup_stm32f767xx.o(.text)
    DMA1_Stream7_IRQHandler                  0x08000227   Thumb Code     0  startup_stm32f767xx.o(.text)
    DMA2D_IRQHandler                         0x08000227   Thumb Code     0  startup_stm32f767xx.o(.text)
    DMA2_Stream3_IRQHandler                  0x08000227   Thumb Code     0  startup_stm32f767xx.o(.text)
    DMA2_Stream4_IRQHandler                  0x08000227   Thumb Code     0  startup_stm32f767xx.o(.text)
    DMA2_Stream5_IRQHandler                  0x08000227   Thumb Code     0  startup_stm32f767xx.o(.text)
    DMA2_Stream6_IRQHandler                  0x08000227   Thumb Code     0  startup_stm32f767xx.o(.text)
    DMA2_Stream7_IRQHandler                  0x08000227   Thumb Code     0  startup_stm32f767xx.o(.text)
    ETH_IRQHandler                           0x08000227   Thumb Code     0  startup_stm32f767xx.o(.text)
    ETH_WKUP_IRQHandler                      0x08000227   Thumb Code     0  startup_stm32f767xx.o(.text)
    EXTI0_IRQHandler                         0x08000227   Thumb Code     0  startup_stm32f767xx.o(.text)
    EXTI1_IRQHandler                         0x08000227   Thumb Code     0  startup_stm32f767xx.o(.text)
    EXTI2_IRQHandler                         0x08000227   Thumb Code     0  startup_stm32f767xx.o(.text)
    EXTI3_IRQHandler                         0x08000227   Thumb Code     0  startup_stm32f767xx.o(.text)
    EXTI4_IRQHandler                         0x08000227   Thumb Code     0  startup_stm32f767xx.o(.text)
    EXTI9_5_IRQHandler                       0x08000227   Thumb Code     0  startup_stm32f767xx.o(.text)
    FLASH_IRQHandler                         0x08000227   Thumb Code     0  startup_stm32f767xx.o(.text)
    FMC_IRQHandler                           0x08000227   Thumb Code     0  startup_stm32f767xx.o(.text)
    FPU_IRQHandler                           0x08000227   Thumb Code     0  startup_stm32f767xx.o(.text)
    I2C1_ER_IRQHandler                       0x08000227   Thumb Code     0  startup_stm32f767xx.o(.text)
    I2C1_EV_IRQHandler                       0x08000227   Thumb Code     0  startup_stm32f767xx.o(.text)
    I2C2_ER_IRQHandler                       0x08000227   Thumb Code     0  startup_stm32f767xx.o(.text)
    I2C2_EV_IRQHandler                       0x08000227   Thumb Code     0  startup_stm32f767xx.o(.text)
    I2C3_ER_IRQHandler                       0x08000227   Thumb Code     0  startup_stm32f767xx.o(.text)
    I2C3_EV_IRQHandler                       0x08000227   Thumb Code     0  startup_stm32f767xx.o(.text)
    I2C4_ER_IRQHandler                       0x08000227   Thumb Code     0  startup_stm32f767xx.o(.text)
    I2C4_EV_IRQHandler                       0x08000227   Thumb Code     0  startup_stm32f767xx.o(.text)
    JPEG_IRQHandler                          0x08000227   Thumb Code     0  startup_stm32f767xx.o(.text)
    LPTIM1_IRQHandler                        0x08000227   Thumb Code     0  startup_stm32f767xx.o(.text)
    LTDC_ER_IRQHandler                       0x08000227   Thumb Code     0  startup_stm32f767xx.o(.text)
    LTDC_IRQHandler                          0x08000227   Thumb Code     0  startup_stm32f767xx.o(.text)
    MDIOS_IRQHandler                         0x08000227   Thumb Code     0  startup_stm32f767xx.o(.text)
    OTG_FS_IRQHandler                        0x08000227   Thumb Code     0  startup_stm32f767xx.o(.text)
    OTG_FS_WKUP_IRQHandler                   0x08000227   Thumb Code     0  startup_stm32f767xx.o(.text)
    OTG_HS_EP1_IN_IRQHandler                 0x08000227   Thumb Code     0  startup_stm32f767xx.o(.text)
    OTG_HS_EP1_OUT_IRQHandler                0x08000227   Thumb Code     0  startup_stm32f767xx.o(.text)
    OTG_HS_IRQHandler                        0x08000227   Thumb Code     0  startup_stm32f767xx.o(.text)
    OTG_HS_WKUP_IRQHandler                   0x08000227   Thumb Code     0  startup_stm32f767xx.o(.text)
    PVD_IRQHandler                           0x08000227   Thumb Code     0  startup_stm32f767xx.o(.text)
    QUADSPI_IRQHandler                       0x08000227   Thumb Code     0  startup_stm32f767xx.o(.text)
    RCC_IRQHandler                           0x08000227   Thumb Code     0  startup_stm32f767xx.o(.text)
    RNG_IRQHandler                           0x08000227   Thumb Code     0  startup_stm32f767xx.o(.text)
    RTC_Alarm_IRQHandler                     0x08000227   Thumb Code     0  startup_stm32f767xx.o(.text)
    RTC_WKUP_IRQHandler                      0x08000227   Thumb Code     0  startup_stm32f767xx.o(.text)
    SAI1_IRQHandler                          0x08000227   Thumb Code     0  startup_stm32f767xx.o(.text)
    SAI2_IRQHandler                          0x08000227   Thumb Code     0  startup_stm32f767xx.o(.text)
    SDMMC1_IRQHandler                        0x08000227   Thumb Code     0  startup_stm32f767xx.o(.text)
    SDMMC2_IRQHandler                        0x08000227   Thumb Code     0  startup_stm32f767xx.o(.text)
    SPDIF_RX_IRQHandler                      0x08000227   Thumb Code     0  startup_stm32f767xx.o(.text)
    SPI1_IRQHandler                          0x08000227   Thumb Code     0  startup_stm32f767xx.o(.text)
    SPI3_IRQHandler                          0x08000227   Thumb Code     0  startup_stm32f767xx.o(.text)
    SPI4_IRQHandler                          0x08000227   Thumb Code     0  startup_stm32f767xx.o(.text)
    SPI5_IRQHandler                          0x08000227   Thumb Code     0  startup_stm32f767xx.o(.text)
    SPI6_IRQHandler                          0x08000227   Thumb Code     0  startup_stm32f767xx.o(.text)
    TAMP_STAMP_IRQHandler                    0x08000227   Thumb Code     0  startup_stm32f767xx.o(.text)
    TIM1_BRK_TIM9_IRQHandler                 0x08000227   Thumb Code     0  startup_stm32f767xx.o(.text)
    TIM1_CC_IRQHandler                       0x08000227   Thumb Code     0  startup_stm32f767xx.o(.text)
    TIM1_TRG_COM_TIM11_IRQHandler            0x08000227   Thumb Code     0  startup_stm32f767xx.o(.text)
    TIM2_IRQHandler                          0x08000227   Thumb Code     0  startup_stm32f767xx.o(.text)
    TIM3_IRQHandler                          0x08000227   Thumb Code     0  startup_stm32f767xx.o(.text)
    TIM4_IRQHandler                          0x08000227   Thumb Code     0  startup_stm32f767xx.o(.text)
    TIM5_IRQHandler                          0x08000227   Thumb Code     0  startup_stm32f767xx.o(.text)
    TIM6_DAC_IRQHandler                      0x08000227   Thumb Code     0  startup_stm32f767xx.o(.text)
    TIM7_IRQHandler                          0x08000227   Thumb Code     0  startup_stm32f767xx.o(.text)
    TIM8_BRK_TIM12_IRQHandler                0x08000227   Thumb Code     0  startup_stm32f767xx.o(.text)
    TIM8_CC_IRQHandler                       0x08000227   Thumb Code     0  startup_stm32f767xx.o(.text)
    TIM8_TRG_COM_TIM14_IRQHandler            0x08000227   Thumb Code     0  startup_stm32f767xx.o(.text)
    TIM8_UP_TIM13_IRQHandler                 0x08000227   Thumb Code     0  startup_stm32f767xx.o(.text)
    UART4_IRQHandler                         0x08000227   Thumb Code     0  startup_stm32f767xx.o(.text)
    UART5_IRQHandler                         0x08000227   Thumb Code     0  startup_stm32f767xx.o(.text)
    UART7_IRQHandler                         0x08000227   Thumb Code     0  startup_stm32f767xx.o(.text)
    UART8_IRQHandler                         0x08000227   Thumb Code     0  startup_stm32f767xx.o(.text)
    USART1_IRQHandler                        0x08000227   Thumb Code     0  startup_stm32f767xx.o(.text)
    USART3_IRQHandler                        0x08000227   Thumb Code     0  startup_stm32f767xx.o(.text)
    USART6_IRQHandler                        0x08000227   Thumb Code     0  startup_stm32f767xx.o(.text)
    WWDG_IRQHandler                          0x08000227   Thumb Code     0  startup_stm32f767xx.o(.text)
    __I$use$fp                               0x08000231   Thumb Code     0  iusefp.o(.text)
    __fp_status                              0x08000231   Thumb Code     4  fpstat.o(.text)
    __ieee_status                            0x08000231   Thumb Code     0  fpstat.o(.text)
    __scatterload                            0x08000235   Thumb Code    28  init.o(.text)
    __scatterload_rt2                        0x08000235   Thumb Code     0  init.o(.text)
    __decompress                             0x08000259   Thumb Code     0  __dczerorl2.o(.text)
    __decompress1                            0x08000259   Thumb Code    86  __dczerorl2.o(.text)
    BusFault_Handler                         0x08000327   Thumb Code     2  stm32f7xx_it.o(i.BusFault_Handler)
    DMA2_Stream0_IRQHandler                  0x08000329   Thumb Code     6  stm32f7xx_it.o(i.DMA2_Stream0_IRQHandler)
    DMA2_Stream1_IRQHandler                  0x08000335   Thumb Code     6  stm32f7xx_it.o(i.DMA2_Stream1_IRQHandler)
    DMA2_Stream2_IRQHandler                  0x08000341   Thumb Code     6  stm32f7xx_it.o(i.DMA2_Stream2_IRQHandler)
    DebugMon_Handler                         0x0800034d   Thumb Code     2  stm32f7xx_it.o(i.DebugMon_Handler)
    EXTI15_10_IRQHandler                     0x08000351   Thumb Code    12  stm32f7xx_it.o(i.EXTI15_10_IRQHandler)
    HAL_ADCEx_MultiModeConfigChannel         0x08000361   Thumb Code   116  stm32f7xx_hal_adc_ex.o(i.HAL_ADCEx_MultiModeConfigChannel)
    HAL_ADCEx_MultiModeStart_DMA             0x080003d9   Thumb Code   330  stm32f7xx_hal_adc_ex.o(i.HAL_ADCEx_MultiModeStart_DMA)
    HAL_ADC_ConfigChannel                    0x08000541   Thumb Code   442  stm32f7xx_hal_adc.o(i.HAL_ADC_ConfigChannel)
    HAL_ADC_ConvCpltCallback                 0x0800070d   Thumb Code   548  conversion.o(i.HAL_ADC_ConvCpltCallback)
    HAL_ADC_ConvHalfCpltCallback             0x08000941   Thumb Code     2  stm32f7xx_hal_adc.o(i.HAL_ADC_ConvHalfCpltCallback)
    HAL_ADC_ErrorCallback                    0x08000943   Thumb Code     2  stm32f7xx_hal_adc.o(i.HAL_ADC_ErrorCallback)
    HAL_ADC_Init                             0x08000945   Thumb Code   368  stm32f7xx_hal_adc.o(i.HAL_ADC_Init)
    HAL_ADC_MspInit                          0x08000ac1   Thumb Code   352  adc.o(i.HAL_ADC_MspInit)
    HAL_ADC_Start                            0x08000c5d   Thumb Code   260  stm32f7xx_hal_adc.o(i.HAL_ADC_Start)
    HAL_DMA_Abort_IT                         0x08000d6d   Thumb Code    36  stm32f7xx_hal_dma.o(i.HAL_DMA_Abort_IT)
    HAL_DMA_IRQHandler                       0x08000d91   Thumb Code   464  stm32f7xx_hal_dma.o(i.HAL_DMA_IRQHandler)
    HAL_DMA_Init                             0x08000f6d   Thumb Code   350  stm32f7xx_hal_dma.o(i.HAL_DMA_Init)
    HAL_DMA_Start_IT                         0x080010d9   Thumb Code   156  stm32f7xx_hal_dma.o(i.HAL_DMA_Start_IT)
    HAL_GPIO_EXTI_Callback                   0x08001175   Thumb Code     2  main.o(i.HAL_GPIO_EXTI_Callback)
    HAL_GPIO_EXTI_IRQHandler                 0x08001179   Thumb Code    20  stm32f7xx_hal_gpio.o(i.HAL_GPIO_EXTI_IRQHandler)
    HAL_GPIO_Init                            0x08001191   Thumb Code   572  stm32f7xx_hal_gpio.o(i.HAL_GPIO_Init)
    HAL_GPIO_ReadPin                         0x080013e1   Thumb Code    10  stm32f7xx_hal_gpio.o(i.HAL_GPIO_ReadPin)
    HAL_GPIO_WritePin                        0x080013eb   Thumb Code    10  stm32f7xx_hal_gpio.o(i.HAL_GPIO_WritePin)
    HAL_GetTick                              0x080013f5   Thumb Code     6  stm32f7xx_hal.o(i.HAL_GetTick)
    HAL_IncTick                              0x08001401   Thumb Code    10  stm32f7xx_hal.o(i.HAL_IncTick)
    HAL_Init                                 0x08001411   Thumb Code    22  stm32f7xx_hal.o(i.HAL_Init)
    HAL_InitTick                             0x08001429   Thumb Code    34  stm32f7xx_hal.o(i.HAL_InitTick)
    HAL_MspInit                              0x08001451   Thumb Code    88  stm32f7xx_hal_msp.o(i.HAL_MspInit)
    HAL_NVIC_EnableIRQ                       0x080014a9   Thumb Code    24  stm32f7xx_hal_cortex.o(i.HAL_NVIC_EnableIRQ)
    HAL_NVIC_SetPriority                     0x080014c1   Thumb Code    92  stm32f7xx_hal_cortex.o(i.HAL_NVIC_SetPriority)
    HAL_NVIC_SetPriorityGrouping             0x08001521   Thumb Code    30  stm32f7xx_hal_cortex.o(i.HAL_NVIC_SetPriorityGrouping)
    HAL_PWREx_EnableOverDrive                0x08001545   Thumb Code   116  stm32f7xx_hal_pwr_ex.o(i.HAL_PWREx_EnableOverDrive)
    HAL_QSPI_Init                            0x080015c1   Thumb Code   200  stm32f7xx_hal_qspi.o(i.HAL_QSPI_Init)
    HAL_QSPI_MspInit                         0x0800168d   Thumb Code   118  quadspi.o(i.HAL_QSPI_MspInit)
    HAL_RCCEx_PeriphCLKConfig                0x08001715   Thumb Code  1496  stm32f7xx_hal_rcc_ex.o(i.HAL_RCCEx_PeriphCLKConfig)
    HAL_RCC_ClockConfig                      0x08001cf1   Thumb Code   392  stm32f7xx_hal_rcc.o(i.HAL_RCC_ClockConfig)
    HAL_RCC_GetHCLKFreq                      0x08001e99   Thumb Code     6  stm32f7xx_hal_rcc.o(i.HAL_RCC_GetHCLKFreq)
    HAL_RCC_GetPCLK1Freq                     0x08001ea5   Thumb Code    20  stm32f7xx_hal_rcc.o(i.HAL_RCC_GetPCLK1Freq)
    HAL_RCC_GetPCLK2Freq                     0x08001ec5   Thumb Code    20  stm32f7xx_hal_rcc.o(i.HAL_RCC_GetPCLK2Freq)
    HAL_RCC_GetSysClockFreq                  0x08001ee5   Thumb Code    94  stm32f7xx_hal_rcc.o(i.HAL_RCC_GetSysClockFreq)
    HAL_RCC_OscConfig                        0x08001f55   Thumb Code   928  stm32f7xx_hal_rcc.o(i.HAL_RCC_OscConfig)
    HAL_RTC_Init                             0x08002315   Thumb Code   202  stm32f7xx_hal_rtc.o(i.HAL_RTC_Init)
    HAL_RTC_MspInit                          0x080023e1   Thumb Code    26  rtc.o(i.HAL_RTC_MspInit)
    HAL_SPI_ErrorCallback                    0x08002401   Thumb Code     2  stm32f7xx_hal_spi.o(i.HAL_SPI_ErrorCallback)
    HAL_SPI_IRQHandler                       0x08002405   Thumb Code   242  stm32f7xx_hal_spi.o(i.HAL_SPI_IRQHandler)
    HAL_SPI_Init                             0x080024fd   Thumb Code   210  stm32f7xx_hal_spi.o(i.HAL_SPI_Init)
    HAL_SPI_MspInit                          0x080025d1   Thumb Code    90  spi.o(i.HAL_SPI_MspInit)
    HAL_SPI_Transmit_IT                      0x08002635   Thumb Code   152  stm32f7xx_hal_spi.o(i.HAL_SPI_Transmit_IT)
    HAL_SPI_TxCpltCallback                   0x080026d5   Thumb Code    24  spi_masterslave.o(i.HAL_SPI_TxCpltCallback)
    HAL_SYSTICK_CLKSourceConfig              0x080026f5   Thumb Code    22  stm32f7xx_hal_cortex.o(i.HAL_SYSTICK_CLKSourceConfig)
    HAL_SYSTICK_Callback                     0x0800270b   Thumb Code     2  stm32f7xx_hal_cortex.o(i.HAL_SYSTICK_Callback)
    HAL_SYSTICK_Config                       0x0800270d   Thumb Code    36  stm32f7xx_hal_cortex.o(i.HAL_SYSTICK_Config)
    HAL_SYSTICK_IRQHandler                   0x08002735   Thumb Code     8  stm32f7xx_hal_cortex.o(i.HAL_SYSTICK_IRQHandler)
    HAL_TIMEx_BreakCallback                  0x0800273d   Thumb Code     2  stm32f7xx_hal_tim_ex.o(i.HAL_TIMEx_BreakCallback)
    HAL_TIMEx_CommutationCallback            0x0800273f   Thumb Code     2  stm32f7xx_hal_tim_ex.o(i.HAL_TIMEx_CommutationCallback)
    HAL_TIMEx_MasterConfigSynchronization    0x08002741   Thumb Code    94  stm32f7xx_hal_tim_ex.o(i.HAL_TIMEx_MasterConfigSynchronization)
    HAL_TIM_Base_Init                        0x0800279f   Thumb Code    54  stm32f7xx_hal_tim.o(i.HAL_TIM_Base_Init)
    HAL_TIM_Base_MspInit                     0x080027d5   Thumb Code    84  tim.o(i.HAL_TIM_Base_MspInit)
    HAL_TIM_Base_Start_IT                    0x08002831   Thumb Code    24  stm32f7xx_hal_tim.o(i.HAL_TIM_Base_Start_IT)
    HAL_TIM_ConfigClockSource                0x08002849   Thumb Code   468  stm32f7xx_hal_tim.o(i.HAL_TIM_ConfigClockSource)
    HAL_TIM_IC_CaptureCallback               0x08002a1d   Thumb Code     2  stm32f7xx_hal_tim.o(i.HAL_TIM_IC_CaptureCallback)
    HAL_TIM_IRQHandler                       0x08002a1f   Thumb Code   388  stm32f7xx_hal_tim.o(i.HAL_TIM_IRQHandler)
    HAL_TIM_OC_DelayElapsedCallback          0x08002ba3   Thumb Code     2  stm32f7xx_hal_tim.o(i.HAL_TIM_OC_DelayElapsedCallback)
    HAL_TIM_PWM_PulseFinishedCallback        0x08002ba5   Thumb Code     2  stm32f7xx_hal_tim.o(i.HAL_TIM_PWM_PulseFinishedCallback)
    HAL_TIM_PeriodElapsedCallback            0x08002ba7   Thumb Code     2  stm32f7xx_hal_tim.o(i.HAL_TIM_PeriodElapsedCallback)
    HAL_TIM_TriggerCallback                  0x08002ba9   Thumb Code     2  stm32f7xx_hal_tim.o(i.HAL_TIM_TriggerCallback)
    HAL_UART_ErrorCallback                   0x08002bab   Thumb Code     2  stm32f7xx_hal_uart.o(i.HAL_UART_ErrorCallback)
    HAL_UART_IRQHandler                      0x08002bad   Thumb Code   652  stm32f7xx_hal_uart.o(i.HAL_UART_IRQHandler)
    HAL_UART_Init                            0x08002e3d   Thumb Code   110  stm32f7xx_hal_uart.o(i.HAL_UART_Init)
    HAL_UART_MspInit                         0x08002ead   Thumb Code    88  usart.o(i.HAL_UART_MspInit)
    HAL_UART_Receive_IT                      0x08002f0d   Thumb Code   150  stm32f7xx_hal_uart.o(i.HAL_UART_Receive_IT)
    HAL_UART_RxCpltCallback                  0x08002fa5   Thumb Code    72  uart_masterslave.o(i.HAL_UART_RxCpltCallback)
    HAL_UART_TxCpltCallback                  0x08002ff5   Thumb Code    26  uart_masterslave.o(i.HAL_UART_TxCpltCallback)
    HardFault_Handler                        0x08003015   Thumb Code     2  stm32f7xx_it.o(i.HardFault_Handler)
    MX_ADC1_Init                             0x08003019   Thumb Code   222  adc.o(i.MX_ADC1_Init)
    MX_ADC2_Init                             0x08003111   Thumb Code   182  adc.o(i.MX_ADC2_Init)
    MX_ADC3_Init                             0x080031e1   Thumb Code   184  adc.o(i.MX_ADC3_Init)
    MX_DMA_Init                              0x080032b1   Thumb Code    40  dma.o(i.MX_DMA_Init)
    MX_GPIO_Init                             0x080032dd   Thumb Code   530  gpio.o(i.MX_GPIO_Init)
    MX_QUADSPI_Init                          0x08003515   Thumb Code    54  quadspi.o(i.MX_QUADSPI_Init)
    MX_RTC_Init                              0x08003569   Thumb Code    52  rtc.o(i.MX_RTC_Init)
    MX_SPI2_Init                             0x080035b5   Thumb Code    74  spi.o(i.MX_SPI2_Init)
    MX_TIM1_Init                             0x08003619   Thumb Code   104  tim.o(i.MX_TIM1_Init)
    MX_TIM6_Init                             0x08003699   Thumb Code    70  tim.o(i.MX_TIM6_Init)
    MX_USART2_UART_Init                      0x080036f9   Thumb Code    60  usart.o(i.MX_USART2_UART_Init)
    MemManage_Handler                        0x0800374d   Thumb Code     2  stm32f7xx_it.o(i.MemManage_Handler)
    NMI_Handler                              0x0800374f   Thumb Code     2  stm32f7xx_it.o(i.NMI_Handler)
    PendSV_Handler                           0x08003751   Thumb Code     2  stm32f7xx_it.o(i.PendSV_Handler)
    SPI2_IRQHandler                          0x080037ad   Thumb Code     6  stm32f7xx_it.o(i.SPI2_IRQHandler)
    SVC_Handler                              0x08003a0d   Thumb Code     2  stm32f7xx_it.o(i.SVC_Handler)
    SysTick_Handler                          0x08003a0f   Thumb Code    22  stm32f7xx_it.o(i.SysTick_Handler)
    SystemClock_Config                       0x08003a25   Thumb Code   186  main.o(i.SystemClock_Config)
    SystemInit                               0x08003ae9   Thumb Code    76  system_stm32f7xx.o(i.SystemInit)
    TIM1_UP_TIM10_IRQHandler                 0x08003b49   Thumb Code     6  stm32f7xx_it.o(i.TIM1_UP_TIM10_IRQHandler)
    TIM_Base_SetConfig                       0x08003b55   Thumb Code   180  stm32f7xx_hal_tim.o(i.TIM_Base_SetConfig)
    UART_AdvFeatureConfig                    0x08003c1d   Thumb Code   218  stm32f7xx_hal_uart.o(i.UART_AdvFeatureConfig)
    UART_CheckIdleState                      0x08003cf7   Thumb Code    68  stm32f7xx_hal_uart.o(i.UART_CheckIdleState)
    UART_SetConfig                           0x08003d51   Thumb Code   682  stm32f7xx_hal_uart.o(i.UART_SetConfig)
    UART_WaitOnFlagUntilTimeout              0x0800400d   Thumb Code   118  stm32f7xx_hal_uart.o(i.UART_WaitOnFlagUntilTimeout)
    USART2_IRQHandler                        0x08004085   Thumb Code     6  stm32f7xx_it.o(i.USART2_IRQHandler)
    UsageFault_Handler                       0x08004091   Thumb Code     2  stm32f7xx_it.o(i.UsageFault_Handler)
    _Error_Handler                           0x08004093   Thumb Code     2  main.o(i._Error_Handler)
    __ARM_fpclassify                         0x08004095   Thumb Code    48  fpclassify.o(i.__ARM_fpclassify)
    __ARM_fpclassifyf                        0x080040c5   Thumb Code    38  fpclassifyf.o(i.__ARM_fpclassifyf)
    __hardfp_atan                            0x080040f1   Thumb Code   402  atan.o(i.__hardfp_atan)
    __hardfp_atan2                           0x080042f1   Thumb Code   380  atan2.o(i.__hardfp_atan2)
    __hardfp_atan2f                          0x080044b1   Thumb Code   502  atan2f.o(i.__hardfp_atan2f)
    __hardfp_powf                            0x08004709   Thumb Code  1590  powf.o(i.__hardfp_powf)
    __mathlib_powf                           0x08004709   Thumb Code     0  powf.o(i.__hardfp_powf)
    __hardfp_sin                             0x08004d61   Thumb Code   158  sin.o(i.__hardfp_sin)
    __hardfp_sqrt                            0x08004e11   Thumb Code   102  sqrt.o(i.__hardfp_sqrt)
    __hardfp_sqrtf                           0x08004e77   Thumb Code    58  sqrtf.o(i.__hardfp_sqrtf)
    __ieee754_rem_pio2                       0x08004eb1   Thumb Code   646  rred.o(i.__ieee754_rem_pio2)
    __kernel_cos                             0x080051c1   Thumb Code   182  cos_i.o(i.__kernel_cos)
    __kernel_poly                            0x080052a1   Thumb Code   112  poly.o(i.__kernel_poly)
    __kernel_sin                             0x08005311   Thumb Code   144  sin_i.o(i.__kernel_sin)
    __mathlib_dbl_infnan                     0x080053b9   Thumb Code     6  dunder.o(i.__mathlib_dbl_infnan)
    __mathlib_dbl_infnan2                    0x080053bf   Thumb Code     6  dunder.o(i.__mathlib_dbl_infnan2)
    __mathlib_dbl_invalid                    0x080053c9   Thumb Code    10  dunder.o(i.__mathlib_dbl_invalid)
    __mathlib_dbl_underflow                  0x080053e1   Thumb Code    10  dunder.o(i.__mathlib_dbl_underflow)
    __mathlib_flt_divzero                    0x080053f9   Thumb Code    14  funder.o(i.__mathlib_flt_divzero)
    __mathlib_flt_infnan2                    0x08005411   Thumb Code     6  funder.o(i.__mathlib_flt_infnan2)
    __mathlib_flt_invalid                    0x08005419   Thumb Code    10  funder.o(i.__mathlib_flt_invalid)
    __mathlib_flt_overflow                   0x08005429   Thumb Code    10  funder.o(i.__mathlib_flt_overflow)
    __mathlib_flt_underflow                  0x08005439   Thumb Code    10  funder.o(i.__mathlib_flt_underflow)
    __scatterload_copy                       0x08005449   Thumb Code    14  handlers.o(i.__scatterload_copy)
    __scatterload_null                       0x08005457   Thumb Code     2  handlers.o(i.__scatterload_null)
    __scatterload_zeroinit                   0x08005459   Thumb Code    14  handlers.o(i.__scatterload_zeroinit)
    __set_errno                              0x08005469   Thumb Code     6  errno.o(i.__set_errno)
    atan                                     0x08005475   Thumb Code    16  atan.o(i.atan)
    boardIO                                  0x08005485   Thumb Code   480  boardio.o(i.boardIO)
    cs_PQ_combination                        0x08005681   Thumb Code   154  cs_handles.o(i.cs_PQ_combination)
    cs_computations                          0x08005729   Thumb Code   316  measurement_functions.o(i.cs_computations)
    cs_generation                            0x08005881   Thumb Code   178  measurement_functions.o(i.cs_generation)
    cs_handles                               0x08005935   Thumb Code   840  cs_handles.o(i.cs_handles)
    dpm_mergeDWord                           0x08005c9d   Thumb Code   108  dataparsermerger.o(i.dpm_mergeDWord)
    dpm_mergeFloat                           0x08005d09   Thumb Code    92  dataparsermerger.o(i.dpm_mergeFloat)
    dpm_parseDWord                           0x08005d69   Thumb Code    82  dataparsermerger.o(i.dpm_parseDWord)
    dpm_parseFloat                           0x08005dbd   Thumb Code    92  dataparsermerger.o(i.dpm_parseFloat)
    fabs                                     0x08005e1d   Thumb Code    24  fabs.o(i.fabs)
    fc27                                     0x08005e35   Thumb Code   120  protection_functions.o(i.fc27)
    fc27_all                                 0x08005eb1   Thumb Code   202  fc27.o(i.fc27_all)
    fc27_init                                0x08005fa1   Thumb Code    24  fc27.o(i.fc27_init)
    fc37                                     0x08005fc1   Thumb Code   112  protection_functions.o(i.fc37)
    fc37_all                                 0x08006035   Thumb Code   294  fc37.o(i.fc37_all)
    fc37_init                                0x0800619d   Thumb Code    24  fc37.o(i.fc37_init)
    fc46_all                                 0x080061bd   Thumb Code   116  fc46.o(i.fc46_all)
    fc46_init                                0x08006245   Thumb Code    54  fc46.o(i.fc46_init)
    fc46d                                    0x08006289   Thumb Code   336  protection_functions.o(i.fc46d)
    fc46i                                    0x080063e1   Thumb Code   312  protection_functions.o(i.fc46i)
    fc49                                     0x0800652d   Thumb Code    72  protection_functions.o(i.fc49)
    fc49_all                                 0x08006579   Thumb Code   268  fc49.o(i.fc49_all)
    fc49_init                                0x08006695   Thumb Code    72  fc49.o(i.fc49_init)
    fc50                                     0x080066ed   Thumb Code   222  protection_functions.o(i.fc50)
    fc50N_all                                0x080067d1   Thumb Code   114  fc50n.o(i.fc50N_all)
    fc50N_init                               0x08006861   Thumb Code    22  fc50n.o(i.fc50N_init)
    fc50_all                                 0x08006881   Thumb Code   520  fc50.o(i.fc50_all)
    fc50_init                                0x08006ad9   Thumb Code    40  fc50.o(i.fc50_init)
    fc51                                     0x08006b09   Thumb Code   222  protection_functions.o(i.fc51)
    fc51N_all                                0x08006bf9   Thumb Code    52  fc51n.o(i.fc51N_all)
    fc51N_init                               0x08006c41   Thumb Code    46  fc51n.o(i.fc51N_init)
    fc51_all                                 0x08006c7d   Thumb Code   222  fc51.o(i.fc51_all)
    fc51_init                                0x08006d71   Thumb Code    62  fc51.o(i.fc51_init)
    fc59                                     0x08006dbd   Thumb Code    92  protection_functions.o(i.fc59)
    fc59_all                                 0x08006e1d   Thumb Code   166  fc59.o(i.fc59_all)
    fc59_init                                0x08006ed1   Thumb Code    18  fc59.o(i.fc59_init)
    fcBF                                     0x08006eed   Thumb Code   274  protection_functions.o(i.fcBF)
    fcBF_all                                 0x08007005   Thumb Code   140  fcbf.o(i.fcBF_all)
    fcBF_init                                0x080070a9   Thumb Code    18  fcbf.o(i.fcBF_init)
    fcPVP_all                                0x080070c5   Thumb Code   382  fcpvp.o(i.fcPVP_all)
    fcPVP_init                               0x08007275   Thumb Code    18  fcpvp.o(i.fcPVP_init)
    fcPVPd                                   0x08007291   Thumb Code   108  protection_functions.o(i.fcPVPd)
    fcPVPi                                   0x08007301   Thumb Code   174  protection_functions.o(i.fcPVPi)
    fcUNB_all                                0x080073c1   Thumb Code   380  fcunb.o(i.fcUNB_all)
    fcUNB_init                               0x0800756d   Thumb Code    38  fcunb.o(i.fcUNB_init)
    fcUNBd                                   0x080075a1   Thumb Code   108  protection_functions.o(i.fcUNBd)
    fcUNBi                                   0x08007611   Thumb Code   192  protection_functions.o(i.fcUNBi)
    initFunctions                            0x080076e9   Thumb Code    58  initfunctions.o(i.initFunctions)
    init_conversion                          0x08007725   Thumb Code   156  conversion.o(i.init_conversion)
    init_protection                          0x080077f9   Thumb Code  1830  init_protection.o(i.init_protection)
    main                                     0x08007f25   Thumb Code   272  main.o(i.main)
    main_flow                                0x08008065   Thumb Code    70  main_flow.o(i.main_flow)
    maxSelector_3p                           0x080080ab   Thumb Code    10  protection_functions.o(i.maxSelector_3p)
    off_delay                                0x080080b5   Thumb Code    66  protection_functions.o(i.off_delay)
    on_delay                                 0x080080f7   Thumb Code    64  protection_functions.o(i.on_delay)
    on_off_delay                             0x08008137   Thumb Code    44  protection_functions.o(i.on_off_delay)
    peak_detect_rms                          0x08008165   Thumb Code   162  measurement_functions.o(i.peak_detect_rms)
    pick_trip_reset_handles                  0x08008211   Thumb Code    18  pickup_handles.o(i.pick_trip_reset_handles)
    pick_up_handles                          0x08008225   Thumb Code  2402  pickup_handles.o(i.pick_up_handles)
    pullDataFromMaster                       0x08008b95   Thumb Code  1176  configparams.o(i.pullDataFromMaster)
    pushDataToMaster                         0x0800902d   Thumb Code  1650  commparams.o(i.pushDataToMaster)
    pvp_curve                                0x080096e5   Thumb Code   226  protection_functions.o(i.pvp_curve)
    pvp_filter                               0x08009839   Thumb Code   114  measurement_functions.o(i.pvp_filter)
    reset_handles                            0x080098ad   Thumb Code   970  pickup_handles.o(i.reset_handles)
    spi_initComApp                           0x08009d69   Thumb Code     2  spi_masterslave.o(i.spi_initComApp)
    spi_runComApp                            0x08009d6d   Thumb Code   874  spi_masterslave.o(i.spi_runComApp)
    spi_sysTickCallApp                       0x0800a0e5   Thumb Code    62  spi_masterslave.o(i.spi_sysTickCallApp)
    sym_comp                                 0x0800a129   Thumb Code   126  measurement_functions.o(i.sym_comp)
    sym_mag                                  0x0800a1b1   Thumb Code   386  measurement_functions.o(i.sym_mag)
    thermal_status                           0x0800a33d   Thumb Code   114  measurement_functions.o(i.thermal_status)
    trip_handles                             0x0800a3b5   Thumb Code  1792  pickup_handles.o(i.trip_handles)
    trueRMS                                  0x0800aab5   Thumb Code   302  truerms.o(i.trueRMS)
    true_rms                                 0x0800abf5   Thumb Code   106  measurement_functions.o(i.true_rms)
    uart_initComApp                          0x0800ac65   Thumb Code    10  uart_masterslave.o(i.uart_initComApp)
    uart_runComApp                           0x0800ac79   Thumb Code   374  uart_masterslave.o(i.uart_runComApp)
    uart_sysTickCallApp                      0x0800adfd   Thumb Code    60  uart_masterslave.o(i.uart_sysTickCallApp)
    AHBPrescTable                            0x0800ae44   Data          16  system_stm32f7xx.o(.constdata)
    APBPrescTable                            0x0800ae54   Data           8  system_stm32f7xx.o(.constdata)
    __mathlib_zero                           0x0800b158   Data           8  qnan.o(.constdata)
    Region$$Table$$Base                      0x0800b250   Number         0  anon$$obj.o(Region$$Table)
    Region$$Table$$Limit                     0x0800b270   Number         0  anon$$obj.o(Region$$Table)
    incoming_data_flag                       0x20000000   Data           1  main.o(.data)
    uwTick                                   0x20000004   Data           4  stm32f7xx_hal.o(.data)
    SystemCoreClock                          0x20000008   Data           4  system_stm32f7xx.o(.data)
    curve                                    0x2000000c   Data           1  init_protection.o(.data)
    cSelect1                                 0x20000010   Data           4  init_protection.o(.data)
    cSelect2                                 0x20000014   Data           4  init_protection.o(.data)
    curve_data                               0x20000018   Data          96  init_protection.o(.data)
    fc27_obj1_L1_out                         0x20000080   Data           8  fc27.o(.data)
    fc27_obj1_L2_out                         0x20000088   Data           8  fc27.o(.data)
    fc49_obj1_L1_out_a                       0x20000094   Data           4  fc49.o(.data)
    fc49_obj1_L1_out_b                       0x20000098   Data           4  fc49.o(.data)
    fc49_obj1_L1_out_c                       0x2000009c   Data           4  fc49.o(.data)
    fc49_obj2_L1_out_a                       0x200000a0   Data           4  fc49.o(.data)
    fc49_obj2_L1_out_b                       0x200000a4   Data           4  fc49.o(.data)
    fc49_obj2_L1_out_c                       0x200000a8   Data           4  fc49.o(.data)
    therm_a_obj1                             0x200000ac   Data           4  fc49.o(.data)
    therm_b_obj1                             0x200000b0   Data           4  fc49.o(.data)
    therm_c_obj1                             0x200000b4   Data           4  fc49.o(.data)
    therm_a_obj2                             0x200000b8   Data           4  fc49.o(.data)
    therm_b_obj2                             0x200000bc   Data           4  fc49.o(.data)
    therm_c_obj2                             0x200000c0   Data           4  fc49.o(.data)
    fc49_obj1_L1_in                          0x200000c4   Data           4  fc49.o(.data)
    fc49_obj2_L1_in                          0x200000c8   Data           4  fc49.o(.data)
    fc37_obj1_L1_out_a                       0x200000d8   Data           8  fc37.o(.data)
    fc37_obj1_L1_out_b                       0x200000e0   Data           8  fc37.o(.data)
    fc37_obj1_L1_out_c                       0x200000e8   Data           8  fc37.o(.data)
    fc37_obj2_L1_out_a                       0x200000f0   Data           8  fc37.o(.data)
    fc37_obj2_L1_out_b                       0x200000f8   Data           8  fc37.o(.data)
    fc37_obj2_L1_out_c                       0x20000100   Data           8  fc37.o(.data)
    comp                                     0x20000108   Data           1  fcunb.o(.data)
    UNBpcorrection                           0x2000010c   Data           4  fcunb.o(.data)
    UNBa_rms                                 0x20000110   Data           4  fcunb.o(.data)
    UNBb_rms                                 0x20000114   Data           4  fcunb.o(.data)
    fcUNBi_obj1_L1_in                        0x20000118   Data           8  fcunb.o(.data)
    peak_a                                   0x20000124   Data           4  fcpvp.o(.data)
    peak_b                                   0x20000128   Data           4  fcpvp.o(.data)
    peak_c                                   0x2000012c   Data           4  fcpvp.o(.data)
    fcPVPd_obj1_L1_out_a                     0x20000130   Data           8  fcpvp.o(.data)
    fcPVPd_obj1_L1_out_b                     0x20000138   Data           8  fcpvp.o(.data)
    fcPVPd_obj1_L1_out_c                     0x20000140   Data           8  fcpvp.o(.data)
    fault_code                               0x20000148   Data           1  pickup_handles.o(.data)
    n                                        0x2000014c   Data           8  cs_handles.o(.data)
    UNBa                                     0x20000154   Data           8  cs_handles.o(.data)
    UNBb                                     0x2000015c   Data           8  cs_handles.o(.data)
    sin_coeffs                               0x20000164   Data         200  cs_handles.o(.data)
    cos_coeffs                               0x2000022c   Data         200  cs_handles.o(.data)
    conversion_completed                     0x200002f8   Data           1  conversion.o(.data)
    ch                                       0x200002f9   Data           1  conversion.o(.data)
    cycle_count_1                            0x200002fc   Data           4  conversion.o(.data)
    cycle_count_2                            0x2000030c   Data           4  conversion.o(.data)
    DI                                       0x20000310   Data           4  boardio.o(.data)
    DO                                       0x20000314   Data           4  boardio.o(.data)
    typeCnv                                  0x20000318   Data           4  dataparsermerger.o(.data)
    mSelect                                  0x2000031c   Data           4  configparams.o(.data)
    pFlag                                    0x20000320   Data           4  configparams.o(.data)
    pEN                                      0x20000324   Data           4  configparams.o(.data)
    htim1                                    0x2000032c   Data          64  tim.o(.bss)
    htim6                                    0x2000036c   Data          64  tim.o(.bss)
    hrtc                                     0x200003ac   Data          32  rtc.o(.bss)
    hqspi                                    0x200003cc   Data          76  quadspi.o(.bss)
    hadc1                                    0x20000418   Data          72  adc.o(.bss)
    hadc2                                    0x20000460   Data          72  adc.o(.bss)
    hadc3                                    0x200004a8   Data          72  adc.o(.bss)
    hdma_adc1                                0x200004f0   Data          96  adc.o(.bss)
    hdma_adc2                                0x20000550   Data          96  adc.o(.bss)
    hdma_adc3                                0x200005b0   Data          96  adc.o(.bss)
    adc_values                               0x20000610   Data          60  main.o(.bss)
    huart2                                   0x2000064c   Data         112  usart.o(.bss)
    hspi2                                    0x200006bc   Data         100  spi.o(.bss)
    EN                                       0x20000720   Data         116  init_protection.o(.bss)
    fc50_obj1_L1_out_a                       0x20000794   Data          12  fc50.o(.bss)
    fc50_obj1_L1_out_b                       0x200007a0   Data          12  fc50.o(.bss)
    fc50_obj1_L1_out_c                       0x200007ac   Data          12  fc50.o(.bss)
    fc50_obj1_L2_out_a                       0x200007b8   Data          12  fc50.o(.bss)
    fc50_obj1_L2_out_b                       0x200007c4   Data          12  fc50.o(.bss)
    fc50_obj1_L2_out_c                       0x200007d0   Data          12  fc50.o(.bss)
    fc50_obj1_L3_out_a                       0x200007dc   Data          12  fc50.o(.bss)
    fc50_obj1_L3_out_b                       0x200007e8   Data          12  fc50.o(.bss)
    fc50_obj1_L3_out_c                       0x200007f4   Data          12  fc50.o(.bss)
    fc50_obj2_L1_out_a                       0x20000800   Data          12  fc50.o(.bss)
    fc50_obj2_L1_out_b                       0x2000080c   Data          12  fc50.o(.bss)
    fc50_obj2_L1_out_c                       0x20000818   Data          12  fc50.o(.bss)
    fc50_obj2_L2_out_a                       0x20000824   Data          12  fc50.o(.bss)
    fc50_obj2_L2_out_b                       0x20000830   Data          12  fc50.o(.bss)
    fc50_obj2_L2_out_c                       0x2000083c   Data          12  fc50.o(.bss)
    fc50_obj2_L3_out_a                       0x20000848   Data          12  fc50.o(.bss)
    fc50_obj2_L3_out_b                       0x20000854   Data          12  fc50.o(.bss)
    fc50_obj2_L3_out_c                       0x20000860   Data          12  fc50.o(.bss)
    fc50_obj1_L1_in                          0x2000086c   Data          16  fc50.o(.bss)
    fc50_obj1_L2_in                          0x2000087c   Data          16  fc50.o(.bss)
    fc50_obj1_L3_in                          0x2000088c   Data          16  fc50.o(.bss)
    fc50_obj2_L1_in                          0x2000089c   Data          16  fc50.o(.bss)
    fc50_obj2_L2_in                          0x200008ac   Data          16  fc50.o(.bss)
    fc50_obj2_L3_in                          0x200008bc   Data          16  fc50.o(.bss)
    fc50N_obj1_L1_out                        0x200008cc   Data          12  fc50n.o(.bss)
    fc50N_obj1_L2_out                        0x200008d8   Data          12  fc50n.o(.bss)
    fc50N_obj1_L3_out                        0x200008e4   Data          12  fc50n.o(.bss)
    fc50N_obj1_L1_in                         0x200008f0   Data          16  fc50n.o(.bss)
    fc50N_obj1_L2_in                         0x20000900   Data          16  fc50n.o(.bss)
    fc50N_obj1_L3_in                         0x20000910   Data          16  fc50n.o(.bss)
    fc51_obj1_out_a                          0x20000920   Data          12  fc51.o(.bss)
    fc51_obj1_out_b                          0x2000092c   Data          12  fc51.o(.bss)
    fc51_obj1_out_c                          0x20000938   Data          12  fc51.o(.bss)
    fc51_obj2_out_a                          0x20000944   Data          12  fc51.o(.bss)
    fc51_obj2_out_b                          0x20000950   Data          12  fc51.o(.bss)
    fc51_obj2_out_c                          0x2000095c   Data          12  fc51.o(.bss)
    fc51_obj1_in                             0x20000968   Data          20  fc51.o(.bss)
    fc51_obj2_in                             0x2000097c   Data          20  fc51.o(.bss)
    fc51N_obj1_out                           0x20000990   Data          12  fc51n.o(.bss)
    fc51N_obj1_in                            0x2000099c   Data          20  fc51n.o(.bss)
    fc27_obj1_L1_in                          0x200009b0   Data          12  fc27.o(.bss)
    fc27_obj1_L2_in                          0x200009bc   Data          12  fc27.o(.bss)
    fc59_obj1_L1_out_a                       0x200009c8   Data          12  fc59.o(.bss)
    fc59_obj1_L1_out_b                       0x200009d4   Data          12  fc59.o(.bss)
    fc59_obj1_L1_out_c                       0x200009e0   Data          12  fc59.o(.bss)
    fc59_obj1_L2_out_a                       0x200009ec   Data          12  fc59.o(.bss)
    fc59_obj1_L2_out_b                       0x200009f8   Data          12  fc59.o(.bss)
    fc59_obj1_L2_out_c                       0x20000a04   Data          12  fc59.o(.bss)
    fc59_obj1_L1_in                          0x20000a10   Data          12  fc59.o(.bss)
    fc59_obj1_L2_in                          0x20000a1c   Data          12  fc59.o(.bss)
    fc46d_obj1_L1_out                        0x20000a28   Data          16  fc46.o(.bss)
    fc46i_obj1_L1_out                        0x20000a38   Data          16  fc46.o(.bss)
    fc46d_obj1_L1_in                         0x20000a48   Data          16  fc46.o(.bss)
    fc46i_obj1_L1_in                         0x20000a58   Data          20  fc46.o(.bss)
    fc49_obj1_therm                          0x20000a6c   Data          20  fc49.o(.bss)
    fc49_obj2_therm                          0x20000a80   Data          20  fc49.o(.bss)
    fcBF_out                                 0x20000a94   Data          12  fcbf.o(.bss)
    fcBF_in                                  0x20000aa0   Data          24  fcbf.o(.bss)
    fc37_obj1_L1_in                          0x20000ab8   Data          12  fc37.o(.bss)
    fc37_obj2_L1_in                          0x20000ac4   Data          12  fc37.o(.bss)
    fcUNBd_obj1_L1_out_a                     0x20000ad0   Data          16  fcunb.o(.bss)
    fcUNBd_obj1_L1_out_b                     0x20000ae0   Data          16  fcunb.o(.bss)
    fcUNBi_obj1_L1_out_a                     0x20000af0   Data          12  fcunb.o(.bss)
    fcUNBi_obj1_L1_out_b                     0x20000afc   Data          12  fcunb.o(.bss)
    fcUNBd_obj1_L1_in                        0x20000bd0   Data          12  fcunb.o(.bss)
    pvp_in                                   0x20000bdc   Data          12  fcpvp.o(.bss)
    pvp_in_back                              0x20000be8   Data          12  fcpvp.o(.bss)
    pvp_out                                  0x20000bf4   Data          12  fcpvp.o(.bss)
    pvp_out_back                             0x20000c00   Data          12  fcpvp.o(.bss)
    fcPVPi_obj1_L1_out_a                     0x20000c0c   Data          12  fcpvp.o(.bss)
    fcPVPi_obj1_L1_out_b                     0x20000c18   Data          12  fcpvp.o(.bss)
    fcPVPi_obj1_L1_out_c                     0x20000c24   Data          12  fcpvp.o(.bss)
    fcPVPd_obj1_L1_in                        0x200010e0   Data          12  fcpvp.o(.bss)
    fcPVPi_obj1_L1_in                        0x200010ec   Data          20  fcpvp.o(.bss)
    pick                                     0x20001100   Data          12  pickup_handles.o(.bss)
    trip                                     0x2000110c   Data          12  pickup_handles.o(.bss)
    pick_words                               0x20001118   Data          12  pickup_handles.o(.bss)
    trip_words                               0x20001124   Data          12  pickup_handles.o(.bss)
    phase_cs_A                               0x20001228   Data          16  cs_handles.o(.bss)
    phase_cs_B                               0x20001238   Data          16  cs_handles.o(.bss)
    phase_cs_C                               0x20001248   Data          16  cs_handles.o(.bss)
    phase_cs_A_out                           0x20001258   Data          44  cs_handles.o(.bss)
    phase_cs_B_out                           0x20001284   Data          44  cs_handles.o(.bss)
    phase_cs_C_out                           0x200012b0   Data          44  cs_handles.o(.bss)
    sym                                      0x200012dc   Data          24  cs_handles.o(.bss)
    sym_hist                                 0x200012f4   Data          24  cs_handles.o(.bss)
    mag_sym                                  0x2000130c   Data          24  cs_handles.o(.bss)
    c_buffer                                 0x20001324   Data        2400  cs_handles.o(.bss)
    s_buffer                                 0x20001c84   Data        2400  cs_handles.o(.bss)
    P                                        0x200025e4   Data          28  cs_handles.o(.bss)
    Q                                        0x20002600   Data          28  cs_handles.o(.bss)
    fRMS                                     0x2000261c   Data          60  cs_handles.o(.bss)
    tRMS                                     0x20002658   Data          60  truerms.o(.bss)
    backRMS                                  0x20002694   Data          60  truerms.o(.bss)
    bufferRMS                                0x200026d0   Data        3000  truerms.o(.bss)
    spect_Ia                                 0x20003288   Data         368  spectra.o(.bss)
    spect_Ib                                 0x200033f8   Data         368  spectra.o(.bss)
    spect_Ic                                 0x20003568   Data         368  spectra.o(.bss)
    thd                                      0x200036d8   Data          12  spectra.o(.bss)
    rawAdc                                   0x200036e4   Data          60  conversion.o(.bss)
    fAdc                                     0x20003720   Data          60  conversion.o(.bss)
    offset                                   0x2000375c   Data          60  conversion.o(.bss)
    scale                                    0x20003798   Data          60  conversion.o(.bss)
    TR                                       0x200037d4   Data          48  conversion.o(.bss)
    Sys                                      0x20003804   Data          36  powersysdata.o(.bss)
    comParams                                0x20003828   Data        6020  spi_masterslave.o(.bss)
    spiCRC                                   0x20004fac   Data          12  spi_masterslave.o(.bss)
    comParams_uart                           0x20004fb8   Data        2996  uart_masterslave.o(.bss)
    uartCRC                                  0x20005b6c   Data          12  uart_masterslave.o(.bss)
    __initial_sp                             0x20005f78   Data           0  startup_stm32f767xx.o(STACK)



==============================================================================

Memory Map of the image

  Image Entry point : 0x080001f9

  Load Region LR_IROM1 (Base: 0x08000000, Size: 0x0000b59c, Max: 0x00200000, ABSOLUTE, COMPRESSED[0x0000b3d4])

    Execution Region ER_IROM1 (Base: 0x08000000, Size: 0x0000b270, Max: 0x00200000, ABSOLUTE)

    Base Addr    Size         Type   Attr      Idx    E Section Name        Object

    0x08000000   0x000001f8   Data   RO          882    RESET               startup_stm32f767xx.o
    0x080001f8   0x00000000   Code   RO         5724  * .ARM.Collect$$$$00000000  mc_w.l(entry.o)
    0x080001f8   0x00000004   Code   RO         5792    .ARM.Collect$$$$00000001  mc_w.l(entry2.o)
    0x080001fc   0x00000004   Code   RO         5795    .ARM.Collect$$$$00000004  mc_w.l(entry5.o)
    0x08000200   0x00000000   Code   RO         5797    .ARM.Collect$$$$00000008  mc_w.l(entry7b.o)
    0x08000200   0x00000000   Code   RO         5799    .ARM.Collect$$$$0000000A  mc_w.l(entry8b.o)
    0x08000200   0x00000008   Code   RO         5800    .ARM.Collect$$$$0000000B  mc_w.l(entry9a.o)
    0x08000208   0x00000000   Code   RO         5802    .ARM.Collect$$$$0000000D  mc_w.l(entry10a.o)
    0x08000208   0x00000000   Code   RO         5804    .ARM.Collect$$$$0000000F  mc_w.l(entry11a.o)
    0x08000208   0x00000004   Code   RO         5793    .ARM.Collect$$$$00002712  mc_w.l(entry2.o)
    0x0800020c   0x00000024   Code   RO          883    .text               startup_stm32f767xx.o
    0x08000230   0x00000000   Code   RO         5813    .text               mc_w.l(iusefp.o)
    0x08000230   0x00000004   Code   RO         5814    .text               mf_w.l(fpstat.o)
    0x08000234   0x00000024   Code   RO         5820    .text               mc_w.l(init.o)
    0x08000258   0x00000056   Code   RO         5830    .text               mc_w.l(__dczerorl2.o)
    0x080002ae   0x00000060   Code   RO         2084    i.ADC_MultiModeDMAConvCplt  stm32f7xx_hal_adc_ex.o
    0x0800030e   0x00000012   Code   RO         2085    i.ADC_MultiModeDMAError  stm32f7xx_hal_adc_ex.o
    0x08000320   0x00000006   Code   RO         2086    i.ADC_MultiModeDMAHalfConvCplt  stm32f7xx_hal_adc_ex.o
    0x08000326   0x00000002   Code   RO          310    i.BusFault_Handler  stm32f7xx_it.o
    0x08000328   0x0000000c   Code   RO          311    i.DMA2_Stream0_IRQHandler  stm32f7xx_it.o
    0x08000334   0x0000000c   Code   RO          312    i.DMA2_Stream1_IRQHandler  stm32f7xx_it.o
    0x08000340   0x0000000c   Code   RO          313    i.DMA2_Stream2_IRQHandler  stm32f7xx_it.o
    0x0800034c   0x00000002   Code   RO          314    i.DebugMon_Handler  stm32f7xx_it.o
    0x0800034e   0x00000002   PAD
    0x08000350   0x00000010   Code   RO          315    i.EXTI15_10_IRQHandler  stm32f7xx_it.o
    0x08000360   0x00000078   Code   RO         2095    i.HAL_ADCEx_MultiModeConfigChannel  stm32f7xx_hal_adc_ex.o
    0x080003d8   0x00000168   Code   RO         2097    i.HAL_ADCEx_MultiModeStart_DMA  stm32f7xx_hal_adc_ex.o
    0x08000540   0x000001cc   Code   RO          894    i.HAL_ADC_ConfigChannel  stm32f7xx_hal_adc.o
    0x0800070c   0x00000234   Code   RO         5213    i.HAL_ADC_ConvCpltCallback  conversion.o
    0x08000940   0x00000002   Code   RO          896    i.HAL_ADC_ConvHalfCpltCallback  stm32f7xx_hal_adc.o
    0x08000942   0x00000002   Code   RO          898    i.HAL_ADC_ErrorCallback  stm32f7xx_hal_adc.o
    0x08000944   0x0000017c   Code   RO          903    i.HAL_ADC_Init      stm32f7xx_hal_adc.o
    0x08000ac0   0x0000019c   Code   RO          443    i.HAL_ADC_MspInit   adc.o
    0x08000c5c   0x00000110   Code   RO          909    i.HAL_ADC_Start     stm32f7xx_hal_adc.o
    0x08000d6c   0x00000024   Code   RO         2475    i.HAL_DMA_Abort_IT  stm32f7xx_hal_dma.o
    0x08000d90   0x000001dc   Code   RO         2479    i.HAL_DMA_IRQHandler  stm32f7xx_hal_dma.o
    0x08000f6c   0x0000016c   Code   RO         2480    i.HAL_DMA_Init      stm32f7xx_hal_dma.o
    0x080010d8   0x0000009c   Code   RO         2484    i.HAL_DMA_Start_IT  stm32f7xx_hal_dma.o
    0x08001174   0x00000002   Code   RO          496    i.HAL_GPIO_EXTI_Callback  main.o
    0x08001176   0x00000002   PAD
    0x08001178   0x00000018   Code   RO         1416    i.HAL_GPIO_EXTI_IRQHandler  stm32f7xx_hal_gpio.o
    0x08001190   0x00000250   Code   RO         1417    i.HAL_GPIO_Init     stm32f7xx_hal_gpio.o
    0x080013e0   0x0000000a   Code   RO         1419    i.HAL_GPIO_ReadPin  stm32f7xx_hal_gpio.o
    0x080013ea   0x0000000a   Code   RO         1421    i.HAL_GPIO_WritePin  stm32f7xx_hal_gpio.o
    0x080013f4   0x0000000c   Code   RO         2302    i.HAL_GetTick       stm32f7xx_hal.o
    0x08001400   0x00000010   Code   RO         2306    i.HAL_IncTick       stm32f7xx_hal.o
    0x08001410   0x00000016   Code   RO         2307    i.HAL_Init          stm32f7xx_hal.o
    0x08001426   0x00000002   PAD
    0x08001428   0x00000028   Code   RO         2308    i.HAL_InitTick      stm32f7xx_hal.o
    0x08001450   0x00000058   Code   RO          286    i.HAL_MspInit       stm32f7xx_hal_msp.o
    0x080014a8   0x00000018   Code   RO         1289    i.HAL_NVIC_EnableIRQ  stm32f7xx_hal_cortex.o
    0x080014c0   0x00000060   Code   RO         1295    i.HAL_NVIC_SetPriority  stm32f7xx_hal_cortex.o
    0x08001520   0x00000024   Code   RO         1296    i.HAL_NVIC_SetPriorityGrouping  stm32f7xx_hal_cortex.o
    0x08001544   0x0000007c   Code   RO         2199    i.HAL_PWREx_EnableOverDrive  stm32f7xx_hal_pwr_ex.o
    0x080015c0   0x000000cc   Code   RO         3425    i.HAL_QSPI_Init     stm32f7xx_hal_qspi.o
    0x0800168c   0x00000088   Code   RO          215    i.HAL_QSPI_MspInit  quadspi.o
    0x08001714   0x000005dc   Code   RO         2687    i.HAL_RCCEx_PeriphCLKConfig  stm32f7xx_hal_rcc_ex.o
    0x08001cf0   0x000001a8   Code   RO         2962    i.HAL_RCC_ClockConfig  stm32f7xx_hal_rcc.o
    0x08001e98   0x0000000c   Code   RO         2967    i.HAL_RCC_GetHCLKFreq  stm32f7xx_hal_rcc.o
    0x08001ea4   0x00000020   Code   RO         2969    i.HAL_RCC_GetPCLK1Freq  stm32f7xx_hal_rcc.o
    0x08001ec4   0x00000020   Code   RO         2970    i.HAL_RCC_GetPCLK2Freq  stm32f7xx_hal_rcc.o
    0x08001ee4   0x00000070   Code   RO         2971    i.HAL_RCC_GetSysClockFreq  stm32f7xx_hal_rcc.o
    0x08001f54   0x000003c0   Code   RO         2974    i.HAL_RCC_OscConfig  stm32f7xx_hal_rcc.o
    0x08002314   0x000000ca   Code   RO         1063    i.HAL_RTC_Init      stm32f7xx_hal_rtc.o
    0x080023de   0x00000002   PAD
    0x080023e0   0x00000020   Code   RO          173    i.HAL_RTC_MspInit   rtc.o
    0x08002400   0x00000002   Code   RO         4365    i.HAL_SPI_ErrorCallback  stm32f7xx_hal_spi.o
    0x08002402   0x00000002   PAD
    0x08002404   0x000000f8   Code   RO         4368    i.HAL_SPI_IRQHandler  stm32f7xx_hal_spi.o
    0x080024fc   0x000000d2   Code   RO         4369    i.HAL_SPI_Init      stm32f7xx_hal_spi.o
    0x080025ce   0x00000002   PAD
    0x080025d0   0x00000064   Code   RO          636    i.HAL_SPI_MspInit   spi.o
    0x08002634   0x000000a0   Code   RO         4382    i.HAL_SPI_Transmit_IT  stm32f7xx_hal_spi.o
    0x080026d4   0x00000020   Code   RO         5448    i.HAL_SPI_TxCpltCallback  spi_masterslave.o
    0x080026f4   0x00000016   Code   RO         1298    i.HAL_SYSTICK_CLKSourceConfig  stm32f7xx_hal_cortex.o
    0x0800270a   0x00000002   Code   RO         1299    i.HAL_SYSTICK_Callback  stm32f7xx_hal_cortex.o
    0x0800270c   0x00000028   Code   RO         1300    i.HAL_SYSTICK_Config  stm32f7xx_hal_cortex.o
    0x08002734   0x00000008   Code   RO         1301    i.HAL_SYSTICK_IRQHandler  stm32f7xx_hal_cortex.o
    0x0800273c   0x00000002   Code   RO         3098    i.HAL_TIMEx_BreakCallback  stm32f7xx_hal_tim_ex.o
    0x0800273e   0x00000002   Code   RO         3099    i.HAL_TIMEx_CommutationCallback  stm32f7xx_hal_tim_ex.o
    0x08002740   0x0000005e   Code   RO         3117    i.HAL_TIMEx_MasterConfigSynchronization  stm32f7xx_hal_tim_ex.o
    0x0800279e   0x00000036   Code   RO         1482    i.HAL_TIM_Base_Init  stm32f7xx_hal_tim.o
    0x080027d4   0x0000005c   Code   RO            5    i.HAL_TIM_Base_MspInit  tim.o
    0x08002830   0x00000018   Code   RO         1487    i.HAL_TIM_Base_Start_IT  stm32f7xx_hal_tim.o
    0x08002848   0x000001d4   Code   RO         1491    i.HAL_TIM_ConfigClockSource  stm32f7xx_hal_tim.o
    0x08002a1c   0x00000002   Code   RO         1511    i.HAL_TIM_IC_CaptureCallback  stm32f7xx_hal_tim.o
    0x08002a1e   0x00000184   Code   RO         1524    i.HAL_TIM_IRQHandler  stm32f7xx_hal_tim.o
    0x08002ba2   0x00000002   Code   RO         1527    i.HAL_TIM_OC_DelayElapsedCallback  stm32f7xx_hal_tim.o
    0x08002ba4   0x00000002   Code   RO         1554    i.HAL_TIM_PWM_PulseFinishedCallback  stm32f7xx_hal_tim.o
    0x08002ba6   0x00000002   Code   RO         1561    i.HAL_TIM_PeriodElapsedCallback  stm32f7xx_hal_tim.o
    0x08002ba8   0x00000002   Code   RO         1565    i.HAL_TIM_TriggerCallback  stm32f7xx_hal_tim.o
    0x08002baa   0x00000002   Code   RO         4110    i.HAL_UART_ErrorCallback  stm32f7xx_hal_uart.o
    0x08002bac   0x00000290   Code   RO         4113    i.HAL_UART_IRQHandler  stm32f7xx_hal_uart.o
    0x08002e3c   0x0000006e   Code   RO         4114    i.HAL_UART_Init     stm32f7xx_hal_uart.o
    0x08002eaa   0x00000002   PAD
    0x08002eac   0x00000060   Code   RO          594    i.HAL_UART_MspInit  usart.o
    0x08002f0c   0x00000096   Code   RO         4119    i.HAL_UART_Receive_IT  stm32f7xx_hal_uart.o
    0x08002fa2   0x00000002   PAD
    0x08002fa4   0x00000050   Code   RO         5501    i.HAL_UART_RxCpltCallback  uart_masterslave.o
    0x08002ff4   0x00000020   Code   RO         5502    i.HAL_UART_TxCpltCallback  uart_masterslave.o
    0x08003014   0x00000002   Code   RO          316    i.HardFault_Handler  stm32f7xx_it.o
    0x08003016   0x00000002   PAD
    0x08003018   0x000000f8   Code   RO          444    i.MX_ADC1_Init      adc.o
    0x08003110   0x000000d0   Code   RO          445    i.MX_ADC2_Init      adc.o
    0x080031e0   0x000000d0   Code   RO          446    i.MX_ADC3_Init      adc.o
    0x080032b0   0x0000002c   Code   RO          259    i.MX_DMA_Init       dma.o
    0x080032dc   0x00000238   Code   RO          569    i.MX_GPIO_Init      gpio.o
    0x08003514   0x00000054   Code   RO          216    i.MX_QUADSPI_Init   quadspi.o
    0x08003568   0x0000004c   Code   RO          174    i.MX_RTC_Init       rtc.o
    0x080035b4   0x00000064   Code   RO          637    i.MX_SPI2_Init      spi.o
    0x08003618   0x00000080   Code   RO            6    i.MX_TIM1_Init      tim.o
    0x08003698   0x00000060   Code   RO            7    i.MX_TIM6_Init      tim.o
    0x080036f8   0x00000054   Code   RO          595    i.MX_USART2_UART_Init  usart.o
    0x0800374c   0x00000002   Code   RO          317    i.MemManage_Handler  stm32f7xx_it.o
    0x0800374e   0x00000002   Code   RO          318    i.NMI_Handler       stm32f7xx_it.o
    0x08003750   0x00000002   Code   RO          319    i.PendSV_Handler    stm32f7xx_it.o
    0x08003752   0x00000058   Code   RO         3450    i.QSPI_WaitFlagStateUntilTimeout  stm32f7xx_hal_qspi.o
    0x080037aa   0x00000002   PAD
    0x080037ac   0x0000000c   Code   RO          320    i.SPI2_IRQHandler   stm32f7xx_it.o
    0x080037b8   0x00000012   Code   RO         4393    i.SPI_DMAAbortOnError  stm32f7xx_hal_spi.o
    0x080037ca   0x0000004a   Code   RO         4403    i.SPI_EndRxTxTransaction  stm32f7xx_hal_spi.o
    0x08003814   0x00000068   Code   RO         4406    i.SPI_TxISR_16BIT   stm32f7xx_hal_spi.o
    0x0800387c   0x00000066   Code   RO         4407    i.SPI_TxISR_8BIT    stm32f7xx_hal_spi.o
    0x080038e2   0x00000002   PAD
    0x080038e4   0x0000009c   Code   RO         4408    i.SPI_WaitFifoStateUntilTimeout  stm32f7xx_hal_spi.o
    0x08003980   0x0000008c   Code   RO         4409    i.SPI_WaitFlagStateUntilTimeout  stm32f7xx_hal_spi.o
    0x08003a0c   0x00000002   Code   RO          321    i.SVC_Handler       stm32f7xx_it.o
    0x08003a0e   0x00000016   Code   RO          322    i.SysTick_Handler   stm32f7xx_it.o
    0x08003a24   0x000000c4   Code   RO          497    i.SystemClock_Config  main.o
    0x08003ae8   0x00000060   Code   RO         4666    i.SystemInit        system_stm32f7xx.o
    0x08003b48   0x0000000c   Code   RO          323    i.TIM1_UP_TIM10_IRQHandler  stm32f7xx_it.o
    0x08003b54   0x000000c8   Code   RO         1566    i.TIM_Base_SetConfig  stm32f7xx_hal_tim.o
    0x08003c1c   0x000000da   Code   RO         4127    i.UART_AdvFeatureConfig  stm32f7xx_hal_uart.o
    0x08003cf6   0x00000044   Code   RO         4128    i.UART_CheckIdleState  stm32f7xx_hal_uart.o
    0x08003d3a   0x00000014   Code   RO         4129    i.UART_DMAAbortOnError  stm32f7xx_hal_uart.o
    0x08003d4e   0x00000002   PAD
    0x08003d50   0x000002bc   Code   RO         4135    i.UART_SetConfig    stm32f7xx_hal_uart.o
    0x0800400c   0x00000076   Code   RO         4136    i.UART_WaitOnFlagUntilTimeout  stm32f7xx_hal_uart.o
    0x08004082   0x00000002   PAD
    0x08004084   0x0000000c   Code   RO          324    i.USART2_IRQHandler  stm32f7xx_it.o
    0x08004090   0x00000002   Code   RO          325    i.UsageFault_Handler  stm32f7xx_it.o
    0x08004092   0x00000002   Code   RO          498    i._Error_Handler    main.o
    0x08004094   0x00000030   Code   RO         5816    i.__ARM_fpclassify  m_wv.l(fpclassify.o)
    0x080040c4   0x00000026   Code   RO         5764    i.__ARM_fpclassifyf  m_wv.l(fpclassifyf.o)
    0x080040ea   0x00000006   PAD
    0x080040f0   0x00000200   Code   RO         5727    i.__hardfp_atan     m_wv.l(atan.o)
    0x080042f0   0x000001c0   Code   RO         5650    i.__hardfp_atan2    m_wv.l(atan2.o)
    0x080044b0   0x00000258   Code   RO         5662    i.__hardfp_atan2f   m_wv.l(atan2f.o)
    0x08004708   0x00000658   Code   RO         5674    i.__hardfp_powf     m_wv.l(powf.o)
    0x08004d60   0x000000b0   Code   RO         5688    i.__hardfp_sin      m_wv.l(sin.o)
    0x08004e10   0x00000066   Code   RO         5700    i.__hardfp_sqrt     m_wv.l(sqrt.o)
    0x08004e76   0x0000003a   Code   RO         5712    i.__hardfp_sqrtf    m_wv.l(sqrtf.o)
    0x08004eb0   0x00000310   Code   RO         5781    i.__ieee754_rem_pio2  m_wv.l(rred.o)
    0x080051c0   0x000000e0   Code   RO         5741    i.__kernel_cos      m_wv.l(cos_i.o)
    0x080052a0   0x00000070   Code   RO         5818    i.__kernel_poly     m_wv.l(poly.o)
    0x08005310   0x000000a8   Code   RO         5786    i.__kernel_sin      m_wv.l(sin_i.o)
    0x080053b8   0x00000006   Code   RO         5745    i.__mathlib_dbl_infnan  m_wv.l(dunder.o)
    0x080053be   0x00000006   Code   RO         5746    i.__mathlib_dbl_infnan2  m_wv.l(dunder.o)
    0x080053c4   0x00000004   PAD
    0x080053c8   0x00000018   Code   RO         5747    i.__mathlib_dbl_invalid  m_wv.l(dunder.o)
    0x080053e0   0x00000018   Code   RO         5750    i.__mathlib_dbl_underflow  m_wv.l(dunder.o)
    0x080053f8   0x00000018   Code   RO         5766    i.__mathlib_flt_divzero  m_wv.l(funder.o)
    0x08005410   0x00000006   Code   RO         5768    i.__mathlib_flt_infnan2  m_wv.l(funder.o)
    0x08005416   0x00000002   PAD
    0x08005418   0x00000010   Code   RO         5769    i.__mathlib_flt_invalid  m_wv.l(funder.o)
    0x08005428   0x00000010   Code   RO         5770    i.__mathlib_flt_overflow  m_wv.l(funder.o)
    0x08005438   0x00000010   Code   RO         5772    i.__mathlib_flt_underflow  m_wv.l(funder.o)
    0x08005448   0x0000000e   Code   RO         5824    i.__scatterload_copy  mc_w.l(handlers.o)
    0x08005456   0x00000002   Code   RO         5825    i.__scatterload_null  mc_w.l(handlers.o)
    0x08005458   0x0000000e   Code   RO         5826    i.__scatterload_zeroinit  mc_w.l(handlers.o)
    0x08005466   0x00000002   PAD
    0x08005468   0x0000000c   Code   RO         5808    i.__set_errno       mc_w.l(errno.o)
    0x08005474   0x00000010   Code   RO         5729    i.atan              m_wv.l(atan.o)
    0x08005484   0x000001fc   Code   RO         5291    i.boardIO           boardio.o
    0x08005680   0x000000a4   Code   RO         5135    i.cs_PQ_combination  cs_handles.o
    0x08005724   0x00000004   PAD
    0x08005728   0x00000158   Code   RO          674    i.cs_computations   measurement_functions.o
    0x08005880   0x000000b2   Code   RO          675    i.cs_generation     measurement_functions.o
    0x08005932   0x00000002   PAD
    0x08005934   0x00000368   Code   RO         5136    i.cs_handles        cs_handles.o
    0x08005c9c   0x0000006c   Code   RO         5327    i.dpm_mergeDWord    dataparsermerger.o
    0x08005d08   0x00000060   Code   RO         5328    i.dpm_mergeFloat    dataparsermerger.o
    0x08005d68   0x00000052   Code   RO         5329    i.dpm_parseDWord    dataparsermerger.o
    0x08005dba   0x00000002   PAD
    0x08005dbc   0x00000060   Code   RO         5330    i.dpm_parseFloat    dataparsermerger.o
    0x08005e1c   0x00000018   Code   RO         5760    i.fabs              m_wv.l(fabs.o)
    0x08005e34   0x0000007c   Code   RO          756    i.fc27              protection_functions.o
    0x08005eb0   0x000000f0   Code   RO         4835    i.fc27_all          fc27.o
    0x08005fa0   0x00000020   Code   RO         4836    i.fc27_init         fc27.o
    0x08005fc0   0x00000074   Code   RO          757    i.fc37              protection_functions.o
    0x08006034   0x00000168   Code   RO         4982    i.fc37_all          fc37.o
    0x0800619c   0x00000020   Code   RO         4983    i.fc37_init         fc37.o
    0x080061bc   0x00000088   Code   RO         4892    i.fc46_all          fc46.o
    0x08006244   0x00000044   Code   RO         4893    i.fc46_init         fc46.o
    0x08006288   0x00000158   Code   RO          758    i.fc46d             protection_functions.o
    0x080063e0   0x0000014c   Code   RO          759    i.fc46i             protection_functions.o
    0x0800652c   0x0000004c   Code   RO          760    i.fc49              protection_functions.o
    0x08006578   0x0000011c   Code   RO         4916    i.fc49_all          fc49.o
    0x08006694   0x00000058   Code   RO         4917    i.fc49_init         fc49.o
    0x080066ec   0x000000e4   Code   RO          761    i.fc50              protection_functions.o
    0x080067d0   0x00000090   Code   RO         4757    i.fc50N_all         fc50n.o
    0x08006860   0x00000020   Code   RO         4758    i.fc50N_init        fc50n.o
    0x08006880   0x00000258   Code   RO         4727    i.fc50_all          fc50.o
    0x08006ad8   0x00000030   Code   RO         4728    i.fc50_init         fc50.o
    0x08006b08   0x000000f0   Code   RO          762    i.fc51              protection_functions.o
    0x08006bf8   0x00000048   Code   RO         4809    i.fc51N_all         fc51n.o
    0x08006c40   0x0000003c   Code   RO         4810    i.fc51N_init        fc51n.o
    0x08006c7c   0x000000f4   Code   RO         4783    i.fc51_all          fc51.o
    0x08006d70   0x0000004c   Code   RO         4784    i.fc51_init         fc51.o
    0x08006dbc   0x00000060   Code   RO          763    i.fc59              protection_functions.o
    0x08006e1c   0x000000b4   Code   RO         4870    i.fc59_all          fc59.o
    0x08006ed0   0x0000001c   Code   RO         4871    i.fc59_init         fc59.o
    0x08006eec   0x00000118   Code   RO          764    i.fcBF              protection_functions.o
    0x08007004   0x000000a4   Code   RO         4944    i.fcBF_all          fcbf.o
    0x080070a8   0x0000001c   Code   RO         4945    i.fcBF_init         fcbf.o
    0x080070c4   0x000001b0   Code   RO         5048    i.fcPVP_all         fcpvp.o
    0x08007274   0x0000001c   Code   RO         5049    i.fcPVP_init        fcpvp.o
    0x08007290   0x00000070   Code   RO          765    i.fcPVPd            protection_functions.o
    0x08007300   0x000000c0   Code   RO          766    i.fcPVPi            protection_functions.o
    0x080073c0   0x000001ac   Code   RO         5014    i.fcUNB_all         fcunb.o
    0x0800756c   0x00000034   Code   RO         5015    i.fcUNB_init        fcunb.o
    0x080075a0   0x00000070   Code   RO          767    i.fcUNBd            protection_functions.o
    0x08007610   0x000000d8   Code   RO          768    i.fcUNBi            protection_functions.o
    0x080076e8   0x0000003a   Code   RO         5261    i.initFunctions     initfunctions.o
    0x08007722   0x00000002   PAD
    0x08007724   0x000000d4   Code   RO         5215    i.init_conversion   conversion.o
    0x080077f8   0x0000072c   Code   RO         4700    i.init_protection   init_protection.o
    0x08007f24   0x00000140   Code   RO          499    i.main              main.o
    0x08008064   0x00000046   Code   RO         5626    i.main_flow         main_flow.o
    0x080080aa   0x0000000a   Code   RO          769    i.maxSelector_3p    protection_functions.o
    0x080080b4   0x00000042   Code   RO          771    i.off_delay         protection_functions.o
    0x080080f6   0x00000040   Code   RO          772    i.on_delay          protection_functions.o
    0x08008136   0x0000002c   Code   RO          773    i.on_off_delay      protection_functions.o
    0x08008162   0x00000002   PAD
    0x08008164   0x000000ac   Code   RO          676    i.peak_detect_rms   measurement_functions.o
    0x08008210   0x00000012   Code   RO         5081    i.pick_trip_reset_handles  pickup_handles.o
    0x08008222   0x00000002   PAD
    0x08008224   0x00000970   Code   RO         5082    i.pick_up_handles   pickup_handles.o
    0x08008b94   0x00000498   Code   RO         5599    i.pullDataFromMaster  configparams.o
    0x0800902c   0x000006b8   Code   RO         5555    i.pushDataToMaster  commparams.o
    0x080096e4   0x00000154   Code   RO          774    i.pvp_curve         protection_functions.o
    0x08009838   0x00000072   Code   RO          677    i.pvp_filter        measurement_functions.o
    0x080098aa   0x00000002   PAD
    0x080098ac   0x000004bc   Code   RO         5083    i.reset_handles     pickup_handles.o
    0x08009d68   0x00000002   Code   RO         5449    i.spi_initComApp    spi_masterslave.o
    0x08009d6a   0x00000002   PAD
    0x08009d6c   0x00000378   Code   RO         5450    i.spi_runComApp     spi_masterslave.o
    0x0800a0e4   0x00000044   Code   RO         5451    i.spi_sysTickCallApp  spi_masterslave.o
    0x0800a128   0x00000088   Code   RO          681    i.sym_comp          measurement_functions.o
    0x0800a1b0   0x0000018c   Code   RO          682    i.sym_mag           measurement_functions.o
    0x0800a33c   0x00000078   Code   RO          683    i.thermal_status    measurement_functions.o
    0x0800a3b4   0x00000700   Code   RO         5084    i.trip_handles      pickup_handles.o
    0x0800aab4   0x00000140   Code   RO         5173    i.trueRMS           truerms.o
    0x0800abf4   0x00000070   Code   RO          684    i.true_rms          measurement_functions.o
    0x0800ac64   0x00000014   Code   RO         5503    i.uart_initComApp   uart_masterslave.o
    0x0800ac78   0x00000184   Code   RO         5504    i.uart_runComApp    uart_masterslave.o
    0x0800adfc   0x00000040   Code   RO         5505    i.uart_sysTickCallApp  uart_masterslave.o
    0x0800ae3c   0x00000008   Data   RO         2486    .constdata          stm32f7xx_hal_dma.o
    0x0800ae44   0x00000010   Data   RO         4667    .constdata          system_stm32f7xx.o
    0x0800ae54   0x00000008   Data   RO         4668    .constdata          system_stm32f7xx.o
    0x0800ae5c   0x00000010   Data   RO         4730    .constdata          fc50.o
    0x0800ae6c   0x00000010   Data   RO         4760    .constdata          fc50n.o
    0x0800ae7c   0x00000014   Data   RO         4786    .constdata          fc51.o
    0x0800ae90   0x00000014   Data   RO         4812    .constdata          fc51n.o
    0x0800aea4   0x0000000c   Data   RO         4838    .constdata          fc27.o
    0x0800aeb0   0x0000000c   Data   RO         4873    .constdata          fc59.o
    0x0800aebc   0x00000024   Data   RO         4896    .constdata          fc46.o
    0x0800aee0   0x00000018   Data   RO         4919    .constdata          fc49.o
    0x0800aef8   0x00000018   Data   RO         4947    .constdata          fcbf.o
    0x0800af10   0x0000000c   Data   RO         4985    .constdata          fc37.o
    0x0800af1c   0x00000014   Data   RO         5018    .constdata          fcunb.o
    0x0800af30   0x00000020   Data   RO         5051    .constdata          fcpvp.o
    0x0800af50   0x00000140   Data   RO         5677    .constdata          m_wv.l(powf.o)
    0x0800b090   0x00000098   Data   RO         5730    .constdata          m_wv.l(atan.o)
    0x0800b128   0x00000030   Data   RO         5742    .constdata          m_wv.l(cos_i.o)
    0x0800b158   0x00000008   Data   RO         5780    .constdata          m_wv.l(qnan.o)
    0x0800b160   0x000000c8   Data   RO         5783    .constdata          m_wv.l(rred.o)
    0x0800b228   0x00000028   Data   RO         5787    .constdata          m_wv.l(sin_i.o)
    0x0800b250   0x00000020   Data   RO         5822    Region$$Table       anon$$obj.o


    Execution Region RW_IRAM1 (Base: 0x20000000, Size: 0x00005f78, Max: 0x0001ffff, ABSOLUTE, COMPRESSED[0x00000164])

    Base Addr    Size         Type   Attr      Idx    E Section Name        Object

    0x20000000   0x00000001   Data   RW          501    .data               main.o
    0x20000001   0x00000003   PAD
    0x20000004   0x00000004   Data   RW         2313    .data               stm32f7xx_hal.o
    0x20000008   0x00000004   Data   RW         4669    .data               system_stm32f7xx.o
    0x2000000c   0x0000006c   Data   RW         4702    .data               init_protection.o
    0x20000078   0x00000018   Data   RW         4839    .data               fc27.o
    0x20000090   0x00000001   Data   RW         4897    .data               fc46.o
    0x20000091   0x00000003   PAD
    0x20000094   0x00000038   Data   RW         4920    .data               fc49.o
    0x200000cc   0x0000003c   Data   RW         4986    .data               fc37.o
    0x20000108   0x00000018   Data   RW         5019    .data               fcunb.o
    0x20000120   0x00000028   Data   RW         5052    .data               fcpvp.o
    0x20000148   0x00000002   Data   RW         5086    .data               pickup_handles.o
    0x2000014a   0x00000002   PAD
    0x2000014c   0x000001a8   Data   RW         5141    .data               cs_handles.o
    0x200002f4   0x00000001   Data   RW         5175    .data               truerms.o
    0x200002f5   0x00000003   PAD
    0x200002f8   0x00000014   Data   RW         5217    .data               conversion.o
    0x2000030c   0x00000004   Data   RW         5218    .data               conversion.o
    0x20000310   0x00000008   Data   RW         5292    .data               boardio.o
    0x20000318   0x00000004   Data   RW         5331    .data               dataparsermerger.o
    0x2000031c   0x0000000c   Data   RW         5600    .data               configparams.o
    0x20000328   0x00000004   Data   RW         5809    .data               mc_w.l(errno.o)
    0x2000032c   0x00000080   Zero   RW            8    .bss                tim.o
    0x200003ac   0x00000020   Zero   RW          175    .bss                rtc.o
    0x200003cc   0x0000004c   Zero   RW          217    .bss                quadspi.o
    0x20000418   0x000001f8   Zero   RW          447    .bss                adc.o
    0x20000610   0x0000003c   Zero   RW          500    .bss                main.o
    0x2000064c   0x00000070   Zero   RW          596    .bss                usart.o
    0x200006bc   0x00000064   Zero   RW          638    .bss                spi.o
    0x20000720   0x00000074   Zero   RW         4701    .bss                init_protection.o
    0x20000794   0x00000138   Zero   RW         4729    .bss                fc50.o
    0x200008cc   0x00000054   Zero   RW         4759    .bss                fc50n.o
    0x20000920   0x00000070   Zero   RW         4785    .bss                fc51.o
    0x20000990   0x00000020   Zero   RW         4811    .bss                fc51n.o
    0x200009b0   0x00000018   Zero   RW         4837    .bss                fc27.o
    0x200009c8   0x00000060   Zero   RW         4872    .bss                fc59.o
    0x20000a28   0x00000044   Zero   RW         4894    .bss                fc46.o
    0x20000a6c   0x00000028   Zero   RW         4918    .bss                fc49.o
    0x20000a94   0x00000024   Zero   RW         4946    .bss                fcbf.o
    0x20000ab8   0x00000018   Zero   RW         4984    .bss                fc37.o
    0x20000ad0   0x0000010c   Zero   RW         5017    .bss                fcunb.o
    0x20000bdc   0x00000524   Zero   RW         5050    .bss                fcpvp.o
    0x20001100   0x00000128   Zero   RW         5085    .bss                pickup_handles.o
    0x20001228   0x00001430   Zero   RW         5137    .bss                cs_handles.o
    0x20002658   0x00000c30   Zero   RW         5174    .bss                truerms.o
    0x20003288   0x00000450   Zero   RW         5194    .bss                spectra.o
    0x200036d8   0x0000000c   Zero   RW         5195    .bss                spectra.o
    0x200036e4   0x00000120   Zero   RW         5216    .bss                conversion.o
    0x20003804   0x00000024   Zero   RW         5276    .bss                powersysdata.o
    0x20003828   0x00001790   Zero   RW         5452    .bss                spi_masterslave.o
    0x20004fb8   0x00000bc0   Zero   RW         5506    .bss                uart_masterslave.o
    0x20005b78   0x00000400   Zero   RW          880    STACK               startup_stm32f767xx.o

